	.text
	.file	"memory_utils.c"
	.globl	free_2d_char                    # -- Begin function free_2d_char
	.p2align	4, 0x90
	.type	free_2d_char,@function
free_2d_char:                           # @free_2d_char
.Lfunc_begin0:
	.file	1 "/home/algadea/Dev/42/cube3d/misc/cub3d" "src/memory/memory_utils.c"
	.loc	1 16 0                          # src/memory/memory_utils.c:16:0
	.cfi_startproc
# %bb.0:
	pushq	%rbp
	.cfi_def_cfa_offset 16
	.cfi_offset %rbp, -16
	movq	%rsp, %rbp
	.cfi_def_cfa_register %rbp
	subq	$16, %rsp
	movq	%rdi, -8(%rbp)
.Ltmp0:
	.loc	1 19 4 prologue_end             # src/memory/memory_utils.c:19:4
	movl	$0, -12(%rbp)
.LBB0_1:                                # =>This Inner Loop Header: Depth=1
	.loc	1 20 9                          # src/memory/memory_utils.c:20:9
	movq	-8(%rbp), %rax
	movslq	-12(%rbp), %rcx
	.loc	1 20 2 is_stmt 0                # src/memory/memory_utils.c:20:2
	cmpq	$0, (%rax,%rcx,8)
	je	.LBB0_3
# %bb.2:                                #   in Loop: Header=BB0_1 Depth=1
.Ltmp1:
	.loc	1 22 8 is_stmt 1                # src/memory/memory_utils.c:22:8
	movq	-8(%rbp), %rax
	movslq	-12(%rbp), %rcx
	movq	(%rax,%rcx,8), %rdi
	.loc	1 22 3 is_stmt 0                # src/memory/memory_utils.c:22:3
	callq	free
	.loc	1 23 3 is_stmt 1                # src/memory/memory_utils.c:23:3
	movq	-8(%rbp), %rax
	movslq	-12(%rbp), %rcx
	.loc	1 23 11 is_stmt 0               # src/memory/memory_utils.c:23:11
	movq	$0, (%rax,%rcx,8)
	.loc	1 24 4 is_stmt 1                # src/memory/memory_utils.c:24:4
	movl	-12(%rbp), %eax
	addl	$1, %eax
	movl	%eax, -12(%rbp)
.Ltmp2:
	.loc	1 20 2                          # src/memory/memory_utils.c:20:2
	jmp	.LBB0_1
.LBB0_3:
	.loc	1 26 7                          # src/memory/memory_utils.c:26:7
	movq	-8(%rbp), %rdi
	.loc	1 26 2 is_stmt 0                # src/memory/memory_utils.c:26:2
	callq	free
	.loc	1 27 7 is_stmt 1                # src/memory/memory_utils.c:27:7
	movq	$0, -8(%rbp)
	.loc	1 28 1                          # src/memory/memory_utils.c:28:1
	addq	$16, %rsp
	popq	%rbp
	.cfi_def_cfa %rsp, 8
	retq
.Ltmp3:
.Lfunc_end0:
	.size	free_2d_char, .Lfunc_end0-free_2d_char
	.cfi_endproc
                                        # -- End function
	.globl	free_img                        # -- Begin function free_img
	.p2align	4, 0x90
	.type	free_img,@function
free_img:                               # @free_img
.Lfunc_begin1:
	.loc	1 31 0                          # src/memory/memory_utils.c:31:0
	.cfi_startproc
# %bb.0:
	pushq	%rbp
	.cfi_def_cfa_offset 16
	.cfi_offset %rbp, -16
	movq	%rsp, %rbp
	.cfi_def_cfa_register %rbp
	subq	$16, %rsp
	movq	%rdi, -8(%rbp)
.Ltmp4:
	.loc	1 32 6 prologue_end             # src/memory/memory_utils.c:32:6
	movq	-8(%rbp), %rax
	cmpq	$0, (%rax)
.Ltmp5:
	.loc	1 32 6 is_stmt 0                # src/memory/memory_utils.c:32:6
	je	.LBB1_2
# %bb.1:
.Ltmp6:
	.loc	1 33 8 is_stmt 1                # src/memory/memory_utils.c:33:8
	movq	-8(%rbp), %rax
	.loc	1 33 13 is_stmt 0               # src/memory/memory_utils.c:33:13
	movq	(%rax), %rdi
	.loc	1 33 3                          # src/memory/memory_utils.c:33:3
	callq	free
.Ltmp7:
.LBB1_2:
	.loc	1 36 2 is_stmt 1                # src/memory/memory_utils.c:36:2
	movq	-8(%rbp), %rax
	.loc	1 36 11 is_stmt 0               # src/memory/memory_utils.c:36:11
	movq	$0, (%rax)
	.loc	1 37 2 is_stmt 1                # src/memory/memory_utils.c:37:2
	movq	-8(%rbp), %rax
	.loc	1 37 12 is_stmt 0               # src/memory/memory_utils.c:37:12
	movq	$0, 8(%rax)
	.loc	1 38 7 is_stmt 1                # src/memory/memory_utils.c:38:7
	movq	-8(%rbp), %rdi
	.loc	1 38 2 is_stmt 0                # src/memory/memory_utils.c:38:2
	callq	free
	.loc	1 39 1 is_stmt 1                # src/memory/memory_utils.c:39:1
	addq	$16, %rsp
	popq	%rbp
	.cfi_def_cfa %rsp, 8
	retq
.Ltmp8:
.Lfunc_end1:
	.size	free_img, .Lfunc_end1-free_img
	.cfi_endproc
                                        # -- End function
	.globl	free_xpm_file                   # -- Begin function free_xpm_file
	.p2align	4, 0x90
	.type	free_xpm_file,@function
free_xpm_file:                          # @free_xpm_file
.Lfunc_begin2:
	.loc	1 42 0                          # src/memory/memory_utils.c:42:0
	.cfi_startproc
# %bb.0:
	pushq	%rbp
	.cfi_def_cfa_offset 16
	.cfi_offset %rbp, -16
	movq	%rsp, %rbp
	.cfi_def_cfa_register %rbp
	subq	$16, %rsp
	movq	%rdi, -8(%rbp)
.Ltmp9:
	.loc	1 43 6 prologue_end             # src/memory/memory_utils.c:43:6
	movq	-8(%rbp), %rax
	cmpq	$0, 8(%rax)
.Ltmp10:
	.loc	1 43 6 is_stmt 0                # src/memory/memory_utils.c:43:6
	je	.LBB2_2
# %bb.1:
.Ltmp11:
	.loc	1 44 8 is_stmt 1                # src/memory/memory_utils.c:44:8
	movq	-8(%rbp), %rax
	.loc	1 44 13 is_stmt 0               # src/memory/memory_utils.c:44:13
	movq	8(%rax), %rdi
	.loc	1 44 3                          # src/memory/memory_utils.c:44:3
	callq	free
.Ltmp12:
.LBB2_2:
	.loc	1 45 2 is_stmt 1                # src/memory/memory_utils.c:45:2
	movq	-8(%rbp), %rax
	.loc	1 45 11 is_stmt 0               # src/memory/memory_utils.c:45:11
	movq	$0, 8(%rax)
	.loc	1 46 7 is_stmt 1                # src/memory/memory_utils.c:46:7
	movq	-8(%rbp), %rdi
	.loc	1 46 2 is_stmt 0                # src/memory/memory_utils.c:46:2
	callq	free
	.loc	1 47 6 is_stmt 1                # src/memory/memory_utils.c:47:6
	movq	$0, -8(%rbp)
	.loc	1 48 1                          # src/memory/memory_utils.c:48:1
	addq	$16, %rsp
	popq	%rbp
	.cfi_def_cfa %rsp, 8
	retq
.Ltmp13:
.Lfunc_end2:
	.size	free_xpm_file, .Lfunc_end2-free_xpm_file
	.cfi_endproc
                                        # -- End function
	.file	2 "/home/algadea/Dev/42/cube3d/misc/cub3d" "src/memory/../../include/cub3d.h"
	.section	".note.GNU-stack","",@progbits
	.addrsig
	.addrsig_sym free