	.text
	.file	"memory_clean.c"
	.globl	reset_map_pointer               # -- Begin function reset_map_pointer
	.p2align	4, 0x90
	.type	reset_map_pointer,@function
reset_map_pointer:                      # @reset_map_pointer
.Lfunc_begin0:
	.file	1 "/home/algadea/Dev/42/cube3d/misc/cub3d" "src/memory/memory_clean.c"
	.loc	1 16 0                          # src/memory/memory_clean.c:16:0
	.cfi_startproc
# %bb.0:
	pushq	%rbp
	.cfi_def_cfa_offset 16
	.cfi_offset %rbp, -16
	movq	%rsp, %rbp
	.cfi_def_cfa_register %rbp
	movq	%rdi, -8(%rbp)
.Ltmp0:
	.loc	1 17 2 prologue_end             # src/memory/memory_clean.c:17:2
	movq	-8(%rbp), %rax
	.loc	1 17 18 is_stmt 0               # src/memory/memory_clean.c:17:18
	movq	$0, 16(%rax)
	.loc	1 18 2 is_stmt 1                # src/memory/memory_clean.c:18:2
	movq	-8(%rbp), %rax
	.loc	1 18 18 is_stmt 0               # src/memory/memory_clean.c:18:18
	movq	$0, 24(%rax)
	.loc	1 19 2 is_stmt 1                # src/memory/memory_clean.c:19:2
	movq	-8(%rbp), %rax
	.loc	1 19 18 is_stmt 0               # src/memory/memory_clean.c:19:18
	movq	$0, 32(%rax)
	.loc	1 20 2 is_stmt 1                # src/memory/memory_clean.c:20:2
	movq	-8(%rbp), %rax
	.loc	1 20 18 is_stmt 0               # src/memory/memory_clean.c:20:18
	movq	$0, 40(%rax)
	.loc	1 21 2 is_stmt 1                # src/memory/memory_clean.c:21:2
	movq	-8(%rbp), %rax
	.loc	1 21 12 is_stmt 0               # src/memory/memory_clean.c:21:12
	movq	$0, 56(%rax)
	.loc	1 22 1 is_stmt 1                # src/memory/memory_clean.c:22:1
	popq	%rbp
	.cfi_def_cfa %rsp, 8
	retq
.Ltmp1:
.Lfunc_end0:
	.size	reset_map_pointer, .Lfunc_end0-reset_map_pointer
	.cfi_endproc
                                        # -- End function
	.globl	free_map                        # -- Begin function free_map
	.p2align	4, 0x90
	.type	free_map,@function
free_map:                               # @free_map
.Lfunc_begin1:
	.loc	1 25 0                          # src/memory/memory_clean.c:25:0
	.cfi_startproc
# %bb.0:
	pushq	%rbp
	.cfi_def_cfa_offset 16
	.cfi_offset %rbp, -16
	movq	%rsp, %rbp
	.cfi_def_cfa_register %rbp
	subq	$16, %rsp
	movq	%rdi, -8(%rbp)
.Ltmp2:
	.loc	1 26 6 prologue_end             # src/memory/memory_clean.c:26:6
	movq	-8(%rbp), %rax
	cmpq	$0, 16(%rax)
.Ltmp3:
	.loc	1 26 6 is_stmt 0                # src/memory/memory_clean.c:26:6
	je	.LBB1_2
# %bb.1:
.Ltmp4:
	.loc	1 27 17 is_stmt 1               # src/memory/memory_clean.c:27:17
	movq	-8(%rbp), %rax
	.loc	1 27 22 is_stmt 0               # src/memory/memory_clean.c:27:22
	movq	16(%rax), %rdi
	.loc	1 27 3                          # src/memory/memory_clean.c:27:3
	callq	free_xpm_file
.Ltmp5:
.LBB1_2:
	.loc	1 28 6 is_stmt 1                # src/memory/memory_clean.c:28:6
	movq	-8(%rbp), %rax
	cmpq	$0, 24(%rax)
.Ltmp6:
	.loc	1 28 6 is_stmt 0                # src/memory/memory_clean.c:28:6
	je	.LBB1_4
# %bb.3:
.Ltmp7:
	.loc	1 29 17 is_stmt 1               # src/memory/memory_clean.c:29:17
	movq	-8(%rbp), %rax
	.loc	1 29 22 is_stmt 0               # src/memory/memory_clean.c:29:22
	movq	24(%rax), %rdi
	.loc	1 29 3                          # src/memory/memory_clean.c:29:3
	callq	free_xpm_file
.Ltmp8:
.LBB1_4:
	.loc	1 30 6 is_stmt 1                # src/memory/memory_clean.c:30:6
	movq	-8(%rbp), %rax
	cmpq	$0, 32(%rax)
.Ltmp9:
	.loc	1 30 6 is_stmt 0                # src/memory/memory_clean.c:30:6
	je	.LBB1_6
# %bb.5:
.Ltmp10:
	.loc	1 31 17 is_stmt 1               # src/memory/memory_clean.c:31:17
	movq	-8(%rbp), %rax
	.loc	1 31 22 is_stmt 0               # src/memory/memory_clean.c:31:22
	movq	32(%rax), %rdi
	.loc	1 31 3                          # src/memory/memory_clean.c:31:3
	callq	free_xpm_file
.Ltmp11:
.LBB1_6:
	.loc	1 32 6 is_stmt 1                # src/memory/memory_clean.c:32:6
	movq	-8(%rbp), %rax
	cmpq	$0, 40(%rax)
.Ltmp12:
	.loc	1 32 6 is_stmt 0                # src/memory/memory_clean.c:32:6
	je	.LBB1_8
# %bb.7:
.Ltmp13:
	.loc	1 33 17 is_stmt 1               # src/memory/memory_clean.c:33:17
	movq	-8(%rbp), %rax
	.loc	1 33 22 is_stmt 0               # src/memory/memory_clean.c:33:22
	movq	40(%rax), %rdi
	.loc	1 33 3                          # src/memory/memory_clean.c:33:3
	callq	free_xpm_file
.Ltmp14:
.LBB1_8:
	.loc	1 34 6 is_stmt 1                # src/memory/memory_clean.c:34:6
	movq	-8(%rbp), %rax
	cmpq	$0, 56(%rax)
.Ltmp15:
	.loc	1 34 6 is_stmt 0                # src/memory/memory_clean.c:34:6
	je	.LBB1_10
# %bb.9:
.Ltmp16:
	.loc	1 35 16 is_stmt 1               # src/memory/memory_clean.c:35:16
	movq	-8(%rbp), %rax
	.loc	1 35 21 is_stmt 0               # src/memory/memory_clean.c:35:21
	movq	56(%rax), %rdi
	.loc	1 35 3                          # src/memory/memory_clean.c:35:3
	callq	free_2d_char
.Ltmp17:
.LBB1_10:
	.loc	1 36 20 is_stmt 1               # src/memory/memory_clean.c:36:20
	movq	-8(%rbp), %rdi
	.loc	1 36 2 is_stmt 0                # src/memory/memory_clean.c:36:2
	callq	reset_map_pointer
	.loc	1 37 7 is_stmt 1                # src/memory/memory_clean.c:37:7
	movq	-8(%rbp), %rdi
	.loc	1 37 2 is_stmt 0                # src/memory/memory_clean.c:37:2
	callq	free
	.loc	1 38 6 is_stmt 1                # src/memory/memory_clean.c:38:6
	movq	$0, -8(%rbp)
	.loc	1 39 1                          # src/memory/memory_clean.c:39:1
	addq	$16, %rsp
	popq	%rbp
	.cfi_def_cfa %rsp, 8
	retq
.Ltmp18:
.Lfunc_end1:
	.size	free_map, .Lfunc_end1-free_map
	.cfi_endproc
                                        # -- End function
	.globl	free_file                       # -- Begin function free_file
	.p2align	4, 0x90
	.type	free_file,@function
free_file:                              # @free_file
.Lfunc_begin2:
	.loc	1 42 0                          # src/memory/memory_clean.c:42:0
	.cfi_startproc
# %bb.0:
	pushq	%rbp
	.cfi_def_cfa_offset 16
	.cfi_offset %rbp, -16
	movq	%rsp, %rbp
	.cfi_def_cfa_register %rbp
	subq	$16, %rsp
	movq	%rdi, -8(%rbp)
.Ltmp19:
	.loc	1 43 6 prologue_end             # src/memory/memory_clean.c:43:6
	movq	-8(%rbp), %rax
	cmpq	$0, 16(%rax)
.Ltmp20:
	.loc	1 43 6 is_stmt 0                # src/memory/memory_clean.c:43:6
	je	.LBB2_2
# %bb.1:
.Ltmp21:
	.loc	1 44 8 is_stmt 1                # src/memory/memory_clean.c:44:8
	movq	-8(%rbp), %rax
	.loc	1 44 14 is_stmt 0               # src/memory/memory_clean.c:44:14
	movq	16(%rax), %rdi
	.loc	1 44 3                          # src/memory/memory_clean.c:44:3
	callq	free
.Ltmp22:
.LBB2_2:
	.loc	1 45 6 is_stmt 1                # src/memory/memory_clean.c:45:6
	movq	-8(%rbp), %rax
	cmpq	$0, 24(%rax)
.Ltmp23:
	.loc	1 45 6 is_stmt 0                # src/memory/memory_clean.c:45:6
	je	.LBB2_4
# %bb.3:
.Ltmp24:
	.loc	1 46 8 is_stmt 1                # src/memory/memory_clean.c:46:8
	movq	-8(%rbp), %rax
	.loc	1 46 14 is_stmt 0               # src/memory/memory_clean.c:46:14
	movq	24(%rax), %rdi
	.loc	1 46 3                          # src/memory/memory_clean.c:46:3
	callq	free
.Ltmp25:
.LBB2_4:
	.loc	1 47 6 is_stmt 1                # src/memory/memory_clean.c:47:6
	movq	-8(%rbp), %rax
	cmpq	$0, 32(%rax)
.Ltmp26:
	.loc	1 47 6 is_stmt 0                # src/memory/memory_clean.c:47:6
	je	.LBB2_6
# %bb.5:
.Ltmp27:
	.loc	1 48 8 is_stmt 1                # src/memory/memory_clean.c:48:8
	movq	-8(%rbp), %rax
	.loc	1 48 14 is_stmt 0               # src/memory/memory_clean.c:48:14
	movq	32(%rax), %rdi
	.loc	1 48 3                          # src/memory/memory_clean.c:48:3
	callq	free
.Ltmp28:
.LBB2_6:
	.loc	1 49 6 is_stmt 1                # src/memory/memory_clean.c:49:6
	movq	-8(%rbp), %rax
	cmpq	$0, 40(%rax)
.Ltmp29:
	.loc	1 49 6 is_stmt 0                # src/memory/memory_clean.c:49:6
	je	.LBB2_8
# %bb.7:
.Ltmp30:
	.loc	1 50 8 is_stmt 1                # src/memory/memory_clean.c:50:8
	movq	-8(%rbp), %rax
	.loc	1 50 14 is_stmt 0               # src/memory/memory_clean.c:50:14
	movq	40(%rax), %rdi
	.loc	1 50 3                          # src/memory/memory_clean.c:50:3
	callq	free
.Ltmp31:
.LBB2_8:
	.loc	1 51 6 is_stmt 1                # src/memory/memory_clean.c:51:6
	movq	-8(%rbp), %rax
	cmpq	$0, 48(%rax)
.Ltmp32:
	.loc	1 51 6 is_stmt 0                # src/memory/memory_clean.c:51:6
	je	.LBB2_10
# %bb.9:
.Ltmp33:
	.loc	1 52 16 is_stmt 1               # src/memory/memory_clean.c:52:16
	movq	-8(%rbp), %rax
	.loc	1 52 22 is_stmt 0               # src/memory/memory_clean.c:52:22
	movq	48(%rax), %rdi
	.loc	1 52 3                          # src/memory/memory_clean.c:52:3
	callq	free_2d_char
.Ltmp34:
.LBB2_10:
	.loc	1 53 2 is_stmt 1                # src/memory/memory_clean.c:53:2
	movq	-8(%rbp), %rax
	.loc	1 53 20 is_stmt 0               # src/memory/memory_clean.c:53:20
	movq	$0, 16(%rax)
	.loc	1 54 2 is_stmt 1                # src/memory/memory_clean.c:54:2
	movq	-8(%rbp), %rax
	.loc	1 54 20 is_stmt 0               # src/memory/memory_clean.c:54:20
	movq	$0, 24(%rax)
	.loc	1 55 2 is_stmt 1                # src/memory/memory_clean.c:55:2
	movq	-8(%rbp), %rax
	.loc	1 55 20 is_stmt 0               # src/memory/memory_clean.c:55:20
	movq	$0, 32(%rax)
	.loc	1 56 2 is_stmt 1                # src/memory/memory_clean.c:56:2
	movq	-8(%rbp), %rax
	.loc	1 56 20 is_stmt 0               # src/memory/memory_clean.c:56:20
	movq	$0, 40(%rax)
	.loc	1 57 7 is_stmt 1                # src/memory/memory_clean.c:57:7
	movq	-8(%rbp), %rdi
	.loc	1 57 2 is_stmt 0                # src/memory/memory_clean.c:57:2
	callq	free
	.loc	1 58 7 is_stmt 1                # src/memory/memory_clean.c:58:7
	movq	$0, -8(%rbp)
	.loc	1 59 1                          # src/memory/memory_clean.c:59:1
	addq	$16, %rsp
	popq	%rbp
	.cfi_def_cfa %rsp, 8
	retq
.Ltmp35:
.Lfunc_end2:
	.size	free_file, .Lfunc_end2-free_file
	.cfi_endproc
                                        # -- End function
	.globl	free_scene                      # -- Begin function free_scene
	.p2align	4, 0x90
	.type	free_scene,@function
free_scene:                             # @free_scene
.Lfunc_begin3:
	.loc	1 62 0                          # src/memory/memory_clean.c:62:0
	.cfi_startproc
# %bb.0:
	pushq	%rbp
	.cfi_def_cfa_offset 16
	.cfi_offset %rbp, -16
	movq	%rsp, %rbp
	.cfi_def_cfa_register %rbp
	subq	$16, %rsp
	movq	%rdi, -8(%rbp)
.Ltmp36:
	.loc	1 63 6 prologue_end             # src/memory/memory_clean.c:63:6
	movq	-8(%rbp), %rax
	cmpq	$0, (%rax)
.Ltmp37:
	.loc	1 63 6 is_stmt 0                # src/memory/memory_clean.c:63:6
	je	.LBB3_2
# %bb.1:
.Ltmp38:
	.loc	1 64 12 is_stmt 1               # src/memory/memory_clean.c:64:12
	movq	-8(%rbp), %rax
	.loc	1 64 19 is_stmt 0               # src/memory/memory_clean.c:64:19
	movq	(%rax), %rdi
	.loc	1 64 3                          # src/memory/memory_clean.c:64:3
	callq	free_img
.Ltmp39:
.LBB3_2:
	.loc	1 65 7 is_stmt 1                # src/memory/memory_clean.c:65:7
	movq	-8(%rbp), %rdi
	.loc	1 65 2 is_stmt 0                # src/memory/memory_clean.c:65:2
	callq	free
	.loc	1 66 8 is_stmt 1                # src/memory/memory_clean.c:66:8
	movq	$0, -8(%rbp)
	.loc	1 67 1                          # src/memory/memory_clean.c:67:1
	addq	$16, %rsp
	popq	%rbp
	.cfi_def_cfa %rsp, 8
	retq
.Ltmp40:
.Lfunc_end3:
	.size	free_scene, .Lfunc_end3-free_scene
	.cfi_endproc
                                        # -- End function
	.globl	free_main_menu                  # -- Begin function free_main_menu
	.p2align	4, 0x90
	.type	free_main_menu,@function
free_main_menu:                         # @free_main_menu
.Lfunc_begin4:
	.loc	1 70 0                          # src/memory/memory_clean.c:70:0
	.cfi_startproc
# %bb.0:
	pushq	%rbp
	.cfi_def_cfa_offset 16
	.cfi_offset %rbp, -16
	movq	%rsp, %rbp
	.cfi_def_cfa_register %rbp
	subq	$16, %rsp
	movq	%rdi, -8(%rbp)
.Ltmp41:
	.loc	1 71 6 prologue_end             # src/memory/memory_clean.c:71:6
	movq	-8(%rbp), %rax
	cmpq	$0, (%rax)
.Ltmp42:
	.loc	1 71 6 is_stmt 0                # src/memory/memory_clean.c:71:6
	je	.LBB4_2
# %bb.1:
.Ltmp43:
	.loc	1 72 17 is_stmt 1               # src/memory/memory_clean.c:72:17
	movq	-8(%rbp), %rax
	.loc	1 72 28 is_stmt 0               # src/memory/memory_clean.c:72:28
	movq	(%rax), %rdi
	.loc	1 72 3                          # src/memory/memory_clean.c:72:3
	callq	free_xpm_file
.Ltmp44:
.LBB4_2:
	.loc	1 73 7 is_stmt 1                # src/memory/memory_clean.c:73:7
	movq	-8(%rbp), %rdi
	.loc	1 73 2 is_stmt 0                # src/memory/memory_clean.c:73:2
	callq	free
	.loc	1 74 12 is_stmt 1               # src/memory/memory_clean.c:74:12
	movq	$0, -8(%rbp)
	.loc	1 75 1                          # src/memory/memory_clean.c:75:1
	addq	$16, %rsp
	popq	%rbp
	.cfi_def_cfa %rsp, 8
	retq
.Ltmp45:
.Lfunc_end4:
	.size	free_main_menu, .Lfunc_end4-free_main_menu
	.cfi_endproc
                                        # -- End function
	.globl	clean_program                   # -- Begin function clean_program
	.p2align	4, 0x90
	.type	clean_program,@function
clean_program:                          # @clean_program
.Lfunc_begin5:
	.loc	1 78 0                          # src/memory/memory_clean.c:78:0
	.cfi_startproc
# %bb.0:
	pushq	%rbp
	.cfi_def_cfa_offset 16
	.cfi_offset %rbp, -16
	movq	%rsp, %rbp
	.cfi_def_cfa_register %rbp
	subq	$16, %rsp
	movq	%rdi, -8(%rbp)
.Ltmp46:
	.loc	1 79 6 prologue_end             # src/memory/memory_clean.c:79:6
	movq	-8(%rbp), %rax
	cmpq	$0, 24(%rax)
.Ltmp47:
	.loc	1 79 6 is_stmt 0                # src/memory/memory_clean.c:79:6
	je	.LBB5_2
# %bb.1:
.Ltmp48:
	.loc	1 80 12 is_stmt 1               # src/memory/memory_clean.c:80:12
	movq	-8(%rbp), %rax
	.loc	1 80 19 is_stmt 0               # src/memory/memory_clean.c:80:19
	movq	24(%rax), %rdi
	.loc	1 80 3                          # src/memory/memory_clean.c:80:3
	callq	free_map
.Ltmp49:
.LBB5_2:
	.loc	1 81 6 is_stmt 1                # src/memory/memory_clean.c:81:6
	movq	-8(%rbp), %rax
	cmpq	$0, 32(%rax)
.Ltmp50:
	.loc	1 81 6 is_stmt 0                # src/memory/memory_clean.c:81:6
	je	.LBB5_4
# %bb.3:
.Ltmp51:
	.loc	1 82 13 is_stmt 1               # src/memory/memory_clean.c:82:13
	movq	-8(%rbp), %rax
	.loc	1 82 20 is_stmt 0               # src/memory/memory_clean.c:82:20
	movq	32(%rax), %rdi
	.loc	1 82 3                          # src/memory/memory_clean.c:82:3
	callq	free_file
.Ltmp52:
.LBB5_4:
	.loc	1 83 6 is_stmt 1                # src/memory/memory_clean.c:83:6
	movq	-8(%rbp), %rax
	cmpq	$0, 40(%rax)
.Ltmp53:
	.loc	1 83 6 is_stmt 0                # src/memory/memory_clean.c:83:6
	je	.LBB5_6
# %bb.5:
.Ltmp54:
	.loc	1 84 14 is_stmt 1               # src/memory/memory_clean.c:84:14
	movq	-8(%rbp), %rax
	.loc	1 84 21 is_stmt 0               # src/memory/memory_clean.c:84:21
	movq	40(%rax), %rdi
	.loc	1 84 3                          # src/memory/memory_clean.c:84:3
	callq	free_scene
.Ltmp55:
.LBB5_6:
	.loc	1 85 6 is_stmt 1                # src/memory/memory_clean.c:85:6
	movq	-8(%rbp), %rax
	cmpq	$0, 48(%rax)
.Ltmp56:
	.loc	1 85 6 is_stmt 0                # src/memory/memory_clean.c:85:6
	je	.LBB5_8
# %bb.7:
.Ltmp57:
	.loc	1 86 8 is_stmt 1                # src/memory/memory_clean.c:86:8
	movq	-8(%rbp), %rax
	.loc	1 86 15 is_stmt 0               # src/memory/memory_clean.c:86:15
	movq	48(%rax), %rdi
	.loc	1 86 3                          # src/memory/memory_clean.c:86:3
	callq	free
.Ltmp58:
.LBB5_8:
	.loc	1 87 6 is_stmt 1                # src/memory/memory_clean.c:87:6
	movq	-8(%rbp), %rax
	cmpq	$0, 56(%rax)
.Ltmp59:
	.loc	1 87 6 is_stmt 0                # src/memory/memory_clean.c:87:6
	je	.LBB5_10
# %bb.9:
.Ltmp60:
	.loc	1 88 8 is_stmt 1                # src/memory/memory_clean.c:88:8
	movq	-8(%rbp), %rax
	.loc	1 88 15 is_stmt 0               # src/memory/memory_clean.c:88:15
	movq	56(%rax), %rdi
	.loc	1 88 3                          # src/memory/memory_clean.c:88:3
	callq	free
.Ltmp61:
.LBB5_10:
	.loc	1 89 6 is_stmt 1                # src/memory/memory_clean.c:89:6
	movq	-8(%rbp), %rax
	cmpq	$0, 64(%rax)
.Ltmp62:
	.loc	1 89 6 is_stmt 0                # src/memory/memory_clean.c:89:6
	je	.LBB5_12
# %bb.11:
.Ltmp63:
	.loc	1 90 8 is_stmt 1                # src/memory/memory_clean.c:90:8
	movq	-8(%rbp), %rax
	.loc	1 90 15 is_stmt 0               # src/memory/memory_clean.c:90:15
	movq	64(%rax), %rdi
	.loc	1 90 3                          # src/memory/memory_clean.c:90:3
	callq	free
.Ltmp64:
.LBB5_12:
	.loc	1 91 6 is_stmt 1                # src/memory/memory_clean.c:91:6
	movq	-8(%rbp), %rax
	cmpq	$0, 72(%rax)
.Ltmp65:
	.loc	1 91 6 is_stmt 0                # src/memory/memory_clean.c:91:6
	je	.LBB5_14
# %bb.13:
.Ltmp66:
	.loc	1 92 8 is_stmt 1                # src/memory/memory_clean.c:92:8
	movq	-8(%rbp), %rax
	.loc	1 92 15 is_stmt 0               # src/memory/memory_clean.c:92:15
	movq	72(%rax), %rdi
	.loc	1 92 3                          # src/memory/memory_clean.c:92:3
	callq	free
.Ltmp67:
.LBB5_14:
	.loc	1 93 6 is_stmt 1                # src/memory/memory_clean.c:93:6
	movq	-8(%rbp), %rax
	cmpq	$0, 80(%rax)
.Ltmp68:
	.loc	1 93 6 is_stmt 0                # src/memory/memory_clean.c:93:6
	je	.LBB5_16
# %bb.15:
.Ltmp69:
	.loc	1 94 18 is_stmt 1               # src/memory/memory_clean.c:94:18
	movq	-8(%rbp), %rax
	.loc	1 94 25 is_stmt 0               # src/memory/memory_clean.c:94:25
	movq	80(%rax), %rdi
	.loc	1 94 3                          # src/memory/memory_clean.c:94:3
	callq	free_main_menu
.Ltmp70:
.LBB5_16:
	.loc	1 95 1 is_stmt 1                # src/memory/memory_clean.c:95:1
	addq	$16, %rsp
	popq	%rbp
	.cfi_def_cfa %rsp, 8
	retq
.Ltmp71:
.Lfunc_end5:
	.size	clean_program, .Lfunc_end5-clean_program
	.cfi_endproc
                                        # -- End function
	.file	2 "/usr/include/x86_64-linux-gnu/bits" "types.h"
	.file	3 "/usr/include/x86_64-linux-gnu/bits" "stdint-uintn.h"
	.file	4 "/home/algadea/Dev/42/cube3d/misc/cub3d" "src/memory/../../include/cub3d.h"
	.file	5 "/home/algadea/Dev/42/cube3d/misc/cub3d" "src/memory/../../include/cub3d_player.h"
	.section	".note.GNU-stack","",@progbits
	.addrsig
	.addrsig_sym reset_map_pointer
	.addrsig_sym free_map
	.addrsig_sym free_xpm_file
	.addrsig_sym free_2d_char
	.addrsig_sym free
	.addrsig_sym free_file
	.addrsig_sym free_scene
	.addrsig_sym free_img
	.addrsig_sym free_main_menu