	.text
	.file	"init.c"
	.file	1 "/home/algadea/Dev/42/cube3d/misc/cub3d" "src/init/../../include/cub3d.h"
	.globl	init_mlx                        # -- Begin function init_mlx
	.p2align	4, 0x90
	.type	init_mlx,@function
init_mlx:                               # @init_mlx
.Lfunc_begin0:
	.file	2 "/home/algadea/Dev/42/cube3d/misc/cub3d" "src/init/init.c"
	.loc	2 16 0                          # src/init/init.c:16:0
	.cfi_startproc
# %bb.0:
	pushq	%rbp
	.cfi_def_cfa_offset 16
	.cfi_offset %rbp, -16
	movq	%rsp, %rbp
	.cfi_def_cfa_register %rbp
	subq	$16, %rsp
	movq	%rdi, -8(%rbp)
.Ltmp0:
	.loc	2 17 2 prologue_end             # src/init/init.c:17:2
	movq	-8(%rbp), %rax
	.loc	2 17 9 is_stmt 0                # src/init/init.c:17:9
	movq	56(%rax), %rax
	.loc	2 17 24                         # src/init/init.c:17:24
	movl	$720, (%rax)                    # imm = 0x2D0
	.loc	2 18 2 is_stmt 1                # src/init/init.c:18:2
	movq	-8(%rbp), %rax
	.loc	2 18 9 is_stmt 0                # src/init/init.c:18:9
	movq	56(%rax), %rax
	.loc	2 18 23                         # src/init/init.c:18:23
	movl	$1280, 4(%rax)                  # imm = 0x500
	.loc	2 19 19 is_stmt 1               # src/init/init.c:19:19
	movb	$0, %al
	callq	mlx_init
	movq	%rax, %rcx
	.loc	2 19 2 is_stmt 0                # src/init/init.c:19:2
	movq	-8(%rbp), %rax
	.loc	2 19 17                         # src/init/init.c:19:17
	movq	%rcx, 16(%rax)
.Ltmp1:
	.loc	2 20 7 is_stmt 1                # src/init/init.c:20:7
	movq	-8(%rbp), %rax
	cmpq	$0, 16(%rax)
.Ltmp2:
	.loc	2 20 6 is_stmt 0                # src/init/init.c:20:6
	jne	.LBB0_2
# %bb.1:
.Ltmp3:
	.loc	2 21 33 is_stmt 1               # src/init/init.c:21:33
	movq	-8(%rbp), %rdi
	.loc	2 21 3 is_stmt 0                # src/init/init.c:21:3
	xorl	%esi, %esi
	callq	print_error_then_exit_program
.Ltmp4:
.LBB0_2:
	.loc	2 22 34 is_stmt 1               # src/init/init.c:22:34
	movq	-8(%rbp), %rax
	.loc	2 22 41 is_stmt 0               # src/init/init.c:22:41
	movq	16(%rax), %rdi
	.loc	2 23 3 is_stmt 1                # src/init/init.c:23:3
	movq	-8(%rbp), %rax
	.loc	2 23 10 is_stmt 0               # src/init/init.c:23:10
	movq	56(%rax), %rax
	.loc	2 23 18                         # src/init/init.c:23:18
	movl	4(%rax), %esi
	.loc	2 23 25                         # src/init/init.c:23:25
	movq	-8(%rbp), %rax
	.loc	2 23 32                         # src/init/init.c:23:32
	movq	56(%rax), %rax
	.loc	2 23 40                         # src/init/init.c:23:40
	movl	(%rax), %edx
	.loc	2 22 19 is_stmt 1               # src/init/init.c:22:19
	movabsq	$.L.str, %rcx
	callq	mlx_new_window
	movq	%rax, %rcx
	.loc	2 22 2 is_stmt 0                # src/init/init.c:22:2
	movq	-8(%rbp), %rax
	.loc	2 22 17                         # src/init/init.c:22:17
	movq	%rcx, 8(%rax)
.Ltmp5:
	.loc	2 24 7 is_stmt 1                # src/init/init.c:24:7
	movq	-8(%rbp), %rax
	cmpq	$0, 8(%rax)
.Ltmp6:
	.loc	2 24 6 is_stmt 0                # src/init/init.c:24:6
	jne	.LBB0_4
# %bb.3:
.Ltmp7:
	.loc	2 25 33 is_stmt 1               # src/init/init.c:25:33
	movq	-8(%rbp), %rdi
	.loc	2 25 3 is_stmt 0                # src/init/init.c:25:3
	movl	$1, %esi
	callq	print_error_then_exit_program
.Ltmp8:
.LBB0_4:
	.loc	2 26 1 is_stmt 1                # src/init/init.c:26:1
	addq	$16, %rsp
	popq	%rbp
	.cfi_def_cfa %rsp, 8
	retq
.Ltmp9:
.Lfunc_end0:
	.size	init_mlx, .Lfunc_end0-init_mlx
	.cfi_endproc
                                        # -- End function
	.globl	set_null_pointers               # -- Begin function set_null_pointers
	.p2align	4, 0x90
	.type	set_null_pointers,@function
set_null_pointers:                      # @set_null_pointers
.Lfunc_begin1:
	.loc	2 29 0                          # src/init/init.c:29:0
	.cfi_startproc
# %bb.0:
	pushq	%rbp
	.cfi_def_cfa_offset 16
	.cfi_offset %rbp, -16
	movq	%rsp, %rbp
	.cfi_def_cfa_register %rbp
	movq	%rdi, -8(%rbp)
.Ltmp10:
	.loc	2 30 2 prologue_end             # src/init/init.c:30:2
	movq	-8(%rbp), %rax
	.loc	2 30 17 is_stmt 0               # src/init/init.c:30:17
	movq	$0, 8(%rax)
	.loc	2 31 2 is_stmt 1                # src/init/init.c:31:2
	movq	-8(%rbp), %rax
	.loc	2 31 17 is_stmt 0               # src/init/init.c:31:17
	movq	$0, 16(%rax)
	.loc	2 32 2 is_stmt 1                # src/init/init.c:32:2
	movq	-8(%rbp), %rax
	.loc	2 32 13 is_stmt 0               # src/init/init.c:32:13
	movq	$0, 24(%rax)
	.loc	2 33 2 is_stmt 1                # src/init/init.c:33:2
	movq	-8(%rbp), %rax
	.loc	2 33 14 is_stmt 0               # src/init/init.c:33:14
	movq	$0, 32(%rax)
	.loc	2 34 2 is_stmt 1                # src/init/init.c:34:2
	movq	-8(%rbp), %rax
	.loc	2 34 15 is_stmt 0               # src/init/init.c:34:15
	movq	$0, 40(%rax)
	.loc	2 35 2 is_stmt 1                # src/init/init.c:35:2
	movq	-8(%rbp), %rax
	.loc	2 35 16 is_stmt 0               # src/init/init.c:35:16
	movq	$0, 48(%rax)
	.loc	2 36 2 is_stmt 1                # src/init/init.c:36:2
	movq	-8(%rbp), %rax
	.loc	2 36 16 is_stmt 0               # src/init/init.c:36:16
	movq	$0, 56(%rax)
	.loc	2 37 2 is_stmt 1                # src/init/init.c:37:2
	movq	-8(%rbp), %rax
	.loc	2 37 17 is_stmt 0               # src/init/init.c:37:17
	movq	$0, 64(%rax)
	.loc	2 38 2 is_stmt 1                # src/init/init.c:38:2
	movq	-8(%rbp), %rax
	.loc	2 38 17 is_stmt 0               # src/init/init.c:38:17
	movq	$0, 72(%rax)
	.loc	2 39 2 is_stmt 1                # src/init/init.c:39:2
	movq	-8(%rbp), %rax
	.loc	2 39 19 is_stmt 0               # src/init/init.c:39:19
	movq	$0, 80(%rax)
	.loc	2 40 1 is_stmt 1                # src/init/init.c:40:1
	popq	%rbp
	.cfi_def_cfa %rsp, 8
	retq
.Ltmp11:
.Lfunc_end1:
	.size	set_null_pointers, .Lfunc_end1-set_null_pointers
	.cfi_endproc
                                        # -- End function
	.globl	init_cub3d                      # -- Begin function init_cub3d
	.p2align	4, 0x90
	.type	init_cub3d,@function
init_cub3d:                             # @init_cub3d
.Lfunc_begin2:
	.loc	2 43 0                          # src/init/init.c:43:0
	.cfi_startproc
# %bb.0:
	pushq	%rbp
	.cfi_def_cfa_offset 16
	.cfi_offset %rbp, -16
	movq	%rsp, %rbp
	.cfi_def_cfa_register %rbp
	subq	$16, %rsp
	movq	%rdi, -8(%rbp)
	movq	%rsi, -16(%rbp)
.Ltmp12:
	.loc	2 44 20 prologue_end            # src/init/init.c:44:20
	movq	-8(%rbp), %rdi
	.loc	2 44 2 is_stmt 0                # src/init/init.c:44:2
	callq	set_null_pointers
	.loc	2 45 19 is_stmt 1               # src/init/init.c:45:19
	movq	-8(%rbp), %rdi
	.loc	2 45 2 is_stmt 0                # src/init/init.c:45:2
	callq	init_struct_attr
	.loc	2 46 21 is_stmt 1               # src/init/init.c:46:21
	movq	-8(%rbp), %rdi
	.loc	2 46 28 is_stmt 0               # src/init/init.c:46:28
	movq	-16(%rbp), %rsi
	.loc	2 46 2                          # src/init/init.c:46:2
	callq	extract_input_file
	.loc	2 47 23 is_stmt 1               # src/init/init.c:47:23
	movq	-8(%rbp), %rdi
	.loc	2 47 2 is_stmt 0                # src/init/init.c:47:2
	callq	parse_extracted_data
	.loc	2 48 11 is_stmt 1               # src/init/init.c:48:11
	movq	-8(%rbp), %rdi
	.loc	2 48 2 is_stmt 0                # src/init/init.c:48:2
	callq	init_mlx
	.loc	2 49 21 is_stmt 1               # src/init/init.c:49:21
	movq	-8(%rbp), %rdi
	.loc	2 49 2 is_stmt 0                # src/init/init.c:49:2
	callq	init_struct_attr_2
	.loc	2 50 13 is_stmt 1               # src/init/init.c:50:13
	movq	-8(%rbp), %rdi
	.loc	2 50 2 is_stmt 0                # src/init/init.c:50:2
	callq	load_asset
	.loc	2 51 16 is_stmt 1               # src/init/init.c:51:16
	movq	-8(%rbp), %rdi
	.loc	2 51 2 is_stmt 0                # src/init/init.c:51:2
	callq	set_menu_loop
	.loc	2 52 1 is_stmt 1                # src/init/init.c:52:1
	addq	$16, %rsp
	popq	%rbp
	.cfi_def_cfa %rsp, 8
	retq
.Ltmp13:
.Lfunc_end2:
	.size	init_cub3d, .Lfunc_end2-init_cub3d
	.cfi_endproc
                                        # -- End function
	.type	.L.str,@object                  # @.str
	.section	.rodata.str1.1,"aMS",@progbits,1
.L.str:
	.asciz	"CUB3D"
	.size	.L.str, 6

	.file	3 "/usr/include/x86_64-linux-gnu/bits" "types.h"
	.file	4 "/usr/include/x86_64-linux-gnu/bits" "stdint-uintn.h"
	.file	5 "/home/algadea/Dev/42/cube3d/misc/cub3d" "src/init/../../include/cub3d_player.h"
	.section	".note.GNU-stack","",@progbits
	.addrsig
	.addrsig_sym init_mlx
	.addrsig_sym mlx_init
	.addrsig_sym print_error_then_exit_program
	.addrsig_sym mlx_new_window
	.addrsig_sym set_null_pointers
	.addrsig_sym init_struct_attr
	.addrsig_sym extract_input_file
	.addrsig_sym parse_extracted_data
	.addrsig_sym init_struct_attr_2
	.addrsig_sym load_asset
	.addrsig_sym set_menu_loop