	.text
	.file	"init_struct_attr.c"
	.file	1 "/home/algadea/Dev/42/cube3d/misc/cub3d" "src/init/../../include/cub3d.h"
	.globl	init_map                        # -- Begin function init_map
	.p2align	4, 0x90
	.type	init_map,@function
init_map:                               # @init_map
.Lfunc_begin0:
	.file	2 "/home/algadea/Dev/42/cube3d/misc/cub3d" "src/init/init_struct_attr.c"
	.loc	2 16 0                          # src/init/init_struct_attr.c:16:0
	.cfi_startproc
# %bb.0:
	pushq	%rbp
	.cfi_def_cfa_offset 16
	.cfi_offset %rbp, -16
	movq	%rsp, %rbp
	.cfi_def_cfa_register %rbp
	subq	$16, %rsp
	movq	%rdi, -8(%rbp)
.Ltmp0:
	.loc	2 17 15 prologue_end            # src/init/init_struct_attr.c:17:15
	movl	$64, %edi
	callq	malloc
	movq	%rax, %rcx
	.loc	2 17 2 is_stmt 0                # src/init/init_struct_attr.c:17:2
	movq	-8(%rbp), %rax
	.loc	2 17 13                         # src/init/init_struct_attr.c:17:13
	movq	%rcx, 24(%rax)
.Ltmp1:
	.loc	2 18 7 is_stmt 1                # src/init/init_struct_attr.c:18:7
	movq	-8(%rbp), %rax
	cmpq	$0, 24(%rax)
.Ltmp2:
	.loc	2 18 6 is_stmt 0                # src/init/init_struct_attr.c:18:6
	jne	.LBB0_2
# %bb.1:
.Ltmp3:
	.loc	2 19 33 is_stmt 1               # src/init/init_struct_attr.c:19:33
	movq	-8(%rbp), %rdi
	.loc	2 19 3 is_stmt 0                # src/init/init_struct_attr.c:19:3
	movl	$9, %esi
	callq	print_error_then_exit_program
.Ltmp4:
.LBB0_2:
	.loc	2 20 2 is_stmt 1                # src/init/init_struct_attr.c:20:2
	movq	-8(%rbp), %rax
	.loc	2 20 9 is_stmt 0                # src/init/init_struct_attr.c:20:9
	movq	24(%rax), %rax
	.loc	2 20 25                         # src/init/init_struct_attr.c:20:25
	movq	$0, 16(%rax)
	.loc	2 21 2 is_stmt 1                # src/init/init_struct_attr.c:21:2
	movq	-8(%rbp), %rax
	.loc	2 21 9 is_stmt 0                # src/init/init_struct_attr.c:21:9
	movq	24(%rax), %rax
	.loc	2 21 25                         # src/init/init_struct_attr.c:21:25
	movq	$0, 24(%rax)
	.loc	2 22 2 is_stmt 1                # src/init/init_struct_attr.c:22:2
	movq	-8(%rbp), %rax
	.loc	2 22 9 is_stmt 0                # src/init/init_struct_attr.c:22:9
	movq	24(%rax), %rax
	.loc	2 22 25                         # src/init/init_struct_attr.c:22:25
	movq	$0, 32(%rax)
	.loc	2 23 2 is_stmt 1                # src/init/init_struct_attr.c:23:2
	movq	-8(%rbp), %rax
	.loc	2 23 9 is_stmt 0                # src/init/init_struct_attr.c:23:9
	movq	24(%rax), %rax
	.loc	2 23 25                         # src/init/init_struct_attr.c:23:25
	movq	$0, 40(%rax)
	.loc	2 24 2 is_stmt 1                # src/init/init_struct_attr.c:24:2
	movq	-8(%rbp), %rax
	.loc	2 24 9 is_stmt 0                # src/init/init_struct_attr.c:24:9
	movq	24(%rax), %rax
	.loc	2 24 19                         # src/init/init_struct_attr.c:24:19
	movq	$0, 56(%rax)
	.loc	2 25 1 is_stmt 1                # src/init/init_struct_attr.c:25:1
	addq	$16, %rsp
	popq	%rbp
	.cfi_def_cfa %rsp, 8
	retq
.Ltmp5:
.Lfunc_end0:
	.size	init_map, .Lfunc_end0-init_map
	.cfi_endproc
                                        # -- End function
	.globl	init_file                       # -- Begin function init_file
	.p2align	4, 0x90
	.type	init_file,@function
init_file:                              # @init_file
.Lfunc_begin1:
	.loc	2 28 0                          # src/init/init_struct_attr.c:28:0
	.cfi_startproc
# %bb.0:
	pushq	%rbp
	.cfi_def_cfa_offset 16
	.cfi_offset %rbp, -16
	movq	%rsp, %rbp
	.cfi_def_cfa_register %rbp
	subq	$16, %rsp
	movq	%rdi, -8(%rbp)
.Ltmp6:
	.loc	2 29 16 prologue_end            # src/init/init_struct_attr.c:29:16
	movl	$56, %edi
	callq	malloc
	movq	%rax, %rcx
	.loc	2 29 2 is_stmt 0                # src/init/init_struct_attr.c:29:2
	movq	-8(%rbp), %rax
	.loc	2 29 14                         # src/init/init_struct_attr.c:29:14
	movq	%rcx, 32(%rax)
.Ltmp7:
	.loc	2 30 7 is_stmt 1                # src/init/init_struct_attr.c:30:7
	movq	-8(%rbp), %rax
	cmpq	$0, 32(%rax)
.Ltmp8:
	.loc	2 30 6 is_stmt 0                # src/init/init_struct_attr.c:30:6
	jne	.LBB1_2
# %bb.1:
.Ltmp9:
	.loc	2 31 33 is_stmt 1               # src/init/init_struct_attr.c:31:33
	movq	-8(%rbp), %rdi
	.loc	2 31 3 is_stmt 0                # src/init/init_struct_attr.c:31:3
	movl	$9, %esi
	callq	print_error_then_exit_program
.Ltmp10:
.LBB1_2:
	.loc	2 32 2 is_stmt 1                # src/init/init_struct_attr.c:32:2
	movq	-8(%rbp), %rax
	.loc	2 32 9 is_stmt 0                # src/init/init_struct_attr.c:32:9
	movq	32(%rax), %rax
	.loc	2 32 27                         # src/init/init_struct_attr.c:32:27
	movq	$0, 16(%rax)
	.loc	2 33 2 is_stmt 1                # src/init/init_struct_attr.c:33:2
	movq	-8(%rbp), %rax
	.loc	2 33 9 is_stmt 0                # src/init/init_struct_attr.c:33:9
	movq	32(%rax), %rax
	.loc	2 33 27                         # src/init/init_struct_attr.c:33:27
	movq	$0, 24(%rax)
	.loc	2 34 2 is_stmt 1                # src/init/init_struct_attr.c:34:2
	movq	-8(%rbp), %rax
	.loc	2 34 9 is_stmt 0                # src/init/init_struct_attr.c:34:9
	movq	32(%rax), %rax
	.loc	2 34 27                         # src/init/init_struct_attr.c:34:27
	movq	$0, 32(%rax)
	.loc	2 35 2 is_stmt 1                # src/init/init_struct_attr.c:35:2
	movq	-8(%rbp), %rax
	.loc	2 35 9 is_stmt 0                # src/init/init_struct_attr.c:35:9
	movq	32(%rax), %rax
	.loc	2 35 27                         # src/init/init_struct_attr.c:35:27
	movq	$0, 40(%rax)
	.loc	2 36 2 is_stmt 1                # src/init/init_struct_attr.c:36:2
	movq	-8(%rbp), %rax
	.loc	2 36 9 is_stmt 0                # src/init/init_struct_attr.c:36:9
	movq	32(%rax), %rax
	.loc	2 36 20                         # src/init/init_struct_attr.c:36:20
	movq	$0, 48(%rax)
	.loc	2 37 1 is_stmt 1                # src/init/init_struct_attr.c:37:1
	addq	$16, %rsp
	popq	%rbp
	.cfi_def_cfa %rsp, 8
	retq
.Ltmp11:
.Lfunc_end1:
	.size	init_file, .Lfunc_end1-init_file
	.cfi_endproc
                                        # -- End function
	.globl	init_player                     # -- Begin function init_player
	.p2align	4, 0x90
	.type	init_player,@function
init_player:                            # @init_player
.Lfunc_begin2:
	.loc	2 40 0                          # src/init/init_struct_attr.c:40:0
	.cfi_startproc
# %bb.0:
	pushq	%rbp
	.cfi_def_cfa_offset 16
	.cfi_offset %rbp, -16
	movq	%rsp, %rbp
	.cfi_def_cfa_register %rbp
	subq	$16, %rsp
	movq	%rdi, -8(%rbp)
.Ltmp12:
	.loc	2 41 18 prologue_end            # src/init/init_struct_attr.c:41:18
	movl	$48, %edi
	callq	malloc
	movq	%rax, %rcx
	.loc	2 41 2 is_stmt 0                # src/init/init_struct_attr.c:41:2
	movq	-8(%rbp), %rax
	.loc	2 41 16                         # src/init/init_struct_attr.c:41:16
	movq	%rcx, 48(%rax)
.Ltmp13:
	.loc	2 42 7 is_stmt 1                # src/init/init_struct_attr.c:42:7
	movq	-8(%rbp), %rax
	cmpq	$0, 48(%rax)
.Ltmp14:
	.loc	2 42 6 is_stmt 0                # src/init/init_struct_attr.c:42:6
	jne	.LBB2_2
# %bb.1:
.Ltmp15:
	.loc	2 43 33 is_stmt 1               # src/init/init_struct_attr.c:43:33
	movq	-8(%rbp), %rdi
	.loc	2 43 3 is_stmt 0                # src/init/init_struct_attr.c:43:3
	movl	$9, %esi
	callq	print_error_then_exit_program
.Ltmp16:
.LBB2_2:
	.loc	2 44 26 is_stmt 1               # src/init/init_struct_attr.c:44:26
	movl	$8, %edi
	callq	malloc
	movq	%rax, %rcx
	.loc	2 44 2 is_stmt 0                # src/init/init_struct_attr.c:44:2
	movq	-8(%rbp), %rax
	.loc	2 44 9                          # src/init/init_struct_attr.c:44:9
	movq	48(%rax), %rax
	.loc	2 44 24                         # src/init/init_struct_attr.c:44:24
	movq	%rcx, 40(%rax)
	.loc	2 46 1 is_stmt 1                # src/init/init_struct_attr.c:46:1
	addq	$16, %rsp
	popq	%rbp
	.cfi_def_cfa %rsp, 8
	retq
.Ltmp17:
.Lfunc_end2:
	.size	init_player, .Lfunc_end2-init_player
	.cfi_endproc
                                        # -- End function
	.globl	init_window                     # -- Begin function init_window
	.p2align	4, 0x90
	.type	init_window,@function
init_window:                            # @init_window
.Lfunc_begin3:
	.loc	2 49 0                          # src/init/init_struct_attr.c:49:0
	.cfi_startproc
# %bb.0:
	pushq	%rbp
	.cfi_def_cfa_offset 16
	.cfi_offset %rbp, -16
	movq	%rsp, %rbp
	.cfi_def_cfa_register %rbp
	subq	$16, %rsp
	movq	%rdi, -8(%rbp)
.Ltmp18:
	.loc	2 50 18 prologue_end            # src/init/init_struct_attr.c:50:18
	movl	$8, %edi
	callq	malloc
	movq	%rax, %rcx
	.loc	2 50 2 is_stmt 0                # src/init/init_struct_attr.c:50:2
	movq	-8(%rbp), %rax
	.loc	2 50 16                         # src/init/init_struct_attr.c:50:16
	movq	%rcx, 56(%rax)
.Ltmp19:
	.loc	2 51 7 is_stmt 1                # src/init/init_struct_attr.c:51:7
	movq	-8(%rbp), %rax
	cmpq	$0, 56(%rax)
.Ltmp20:
	.loc	2 51 6 is_stmt 0                # src/init/init_struct_attr.c:51:6
	jne	.LBB3_2
# %bb.1:
.Ltmp21:
	.loc	2 52 33 is_stmt 1               # src/init/init_struct_attr.c:52:33
	movq	-8(%rbp), %rdi
	.loc	2 52 3 is_stmt 0                # src/init/init_struct_attr.c:52:3
	movl	$9, %esi
	callq	print_error_then_exit_program
.Ltmp22:
.LBB3_2:
	.loc	2 53 1 is_stmt 1                # src/init/init_struct_attr.c:53:1
	addq	$16, %rsp
	popq	%rbp
	.cfi_def_cfa %rsp, 8
	retq
.Ltmp23:
.Lfunc_end3:
	.size	init_window, .Lfunc_end3-init_window
	.cfi_endproc
                                        # -- End function
	.globl	init_struct_attr                # -- Begin function init_struct_attr
	.p2align	4, 0x90
	.type	init_struct_attr,@function
init_struct_attr:                       # @init_struct_attr
.Lfunc_begin4:
	.loc	2 56 0                          # src/init/init_struct_attr.c:56:0
	.cfi_startproc
# %bb.0:
	pushq	%rbp
	.cfi_def_cfa_offset 16
	.cfi_offset %rbp, -16
	movq	%rsp, %rbp
	.cfi_def_cfa_register %rbp
	subq	$16, %rsp
	movq	%rdi, -8(%rbp)
.Ltmp24:
	.loc	2 57 2 prologue_end             # src/init/init_struct_attr.c:57:2
	movq	-8(%rbp), %rax
	.loc	2 57 23 is_stmt 0               # src/init/init_struct_attr.c:57:23
	movb	$0, (%rax)
	.loc	2 58 11 is_stmt 1               # src/init/init_struct_attr.c:58:11
	movq	-8(%rbp), %rdi
	.loc	2 58 2 is_stmt 0                # src/init/init_struct_attr.c:58:2
	callq	init_map
	.loc	2 59 12 is_stmt 1               # src/init/init_struct_attr.c:59:12
	movq	-8(%rbp), %rdi
	.loc	2 59 2 is_stmt 0                # src/init/init_struct_attr.c:59:2
	callq	init_file
	.loc	2 60 14 is_stmt 1               # src/init/init_struct_attr.c:60:14
	movq	-8(%rbp), %rdi
	.loc	2 60 2 is_stmt 0                # src/init/init_struct_attr.c:60:2
	callq	init_player
	.loc	2 61 14 is_stmt 1               # src/init/init_struct_attr.c:61:14
	movq	-8(%rbp), %rdi
	.loc	2 61 2 is_stmt 0                # src/init/init_struct_attr.c:61:2
	callq	init_window
	.loc	2 62 1 is_stmt 1                # src/init/init_struct_attr.c:62:1
	addq	$16, %rsp
	popq	%rbp
	.cfi_def_cfa %rsp, 8
	retq
.Ltmp25:
.Lfunc_end4:
	.size	init_struct_attr, .Lfunc_end4-init_struct_attr
	.cfi_endproc
                                        # -- End function
	.file	3 "/usr/include/x86_64-linux-gnu/bits" "types.h"
	.file	4 "/usr/include/x86_64-linux-gnu/bits" "stdint-uintn.h"
	.file	5 "/home/algadea/Dev/42/cube3d/misc/cub3d" "src/init/../../include/cub3d_player.h"
	.section	".note.GNU-stack","",@progbits
	.addrsig
	.addrsig_sym init_map
	.addrsig_sym malloc
	.addrsig_sym print_error_then_exit_program
	.addrsig_sym init_file
	.addrsig_sym init_player
	.addrsig_sym init_window