	.text
	.file	"asset_init.c"
	.file	1 "/home/algadea/Dev/42/cube3d/misc/cub3d" "src/asset/../../include/cub3d.h"
	.globl	create_new_img                  # -- Begin function create_new_img
	.p2align	4, 0x90
	.type	create_new_img,@function
create_new_img:                         # @create_new_img
.Lfunc_begin0:
	.file	2 "/home/algadea/Dev/42/cube3d/misc/cub3d" "src/asset/asset_init.c"
	.loc	2 21 0                          # src/asset/asset_init.c:21:0
	.cfi_startproc
# %bb.0:
	pushq	%rbp
	.cfi_def_cfa_offset 16
	.cfi_offset %rbp, -16
	movq	%rsp, %rbp
	.cfi_def_cfa_register %rbp
	subq	$32, %rsp
	movq	%rdi, -8(%rbp)
	movq	%rsi, -16(%rbp)
	movq	%rdx, -24(%rbp)
.Ltmp0:
	.loc	2 24 8 prologue_end             # src/asset/asset_init.c:24:8
	movl	$32, %edi
	callq	malloc
	.loc	2 24 6 is_stmt 0                # src/asset/asset_init.c:24:6
	movq	%rax, -32(%rbp)
.Ltmp1:
	.loc	2 25 7 is_stmt 1                # src/asset/asset_init.c:25:7
	cmpq	$0, -32(%rbp)
.Ltmp2:
	.loc	2 25 6 is_stmt 0                # src/asset/asset_init.c:25:6
	jne	.LBB0_2
# %bb.1:
.Ltmp3:
	.loc	2 26 33 is_stmt 1               # src/asset/asset_init.c:26:33
	movq	-8(%rbp), %rdi
	.loc	2 26 3 is_stmt 0                # src/asset/asset_init.c:26:3
	movl	$9, %esi
	callq	print_error_then_exit_program
.Ltmp4:
.LBB0_2:
	.loc	2 27 27 is_stmt 1               # src/asset/asset_init.c:27:27
	movq	-24(%rbp), %rdi
	.loc	2 27 36 is_stmt 0               # src/asset/asset_init.c:27:36
	movq	-16(%rbp), %rax
	.loc	2 27 44                         # src/asset/asset_init.c:27:44
	movl	4(%rax), %esi
	.loc	2 27 51                         # src/asset/asset_init.c:27:51
	movq	-16(%rbp), %rax
	.loc	2 27 59                         # src/asset/asset_init.c:27:59
	movl	(%rax), %edx
	.loc	2 27 13                         # src/asset/asset_init.c:27:13
	callq	mlx_new_image
	movq	%rax, %rcx
	.loc	2 27 2                          # src/asset/asset_init.c:27:2
	movq	-32(%rbp), %rax
	.loc	2 27 11                         # src/asset/asset_init.c:27:11
	movq	%rcx, (%rax)
	.loc	2 28 32 is_stmt 1               # src/asset/asset_init.c:28:32
	movq	-32(%rbp), %rax
	.loc	2 28 37 is_stmt 0               # src/asset/asset_init.c:28:37
	movq	(%rax), %rdi
	.loc	2 28 43                         # src/asset/asset_init.c:28:43
	movq	-32(%rbp), %rsi
	.loc	2 28 48                         # src/asset/asset_init.c:28:48
	addq	$24, %rsi
	.loc	2 28 54                         # src/asset/asset_init.c:28:54
	movq	-32(%rbp), %rdx
	.loc	2 28 59                         # src/asset/asset_init.c:28:59
	addq	$20, %rdx
	.loc	2 28 71                         # src/asset/asset_init.c:28:71
	movq	-32(%rbp), %rcx
	.loc	2 28 76                         # src/asset/asset_init.c:28:76
	addq	$16, %rcx
	.loc	2 28 14                         # src/asset/asset_init.c:28:14
	callq	mlx_get_data_addr
	movq	%rax, %rcx
	.loc	2 28 2                          # src/asset/asset_init.c:28:2
	movq	-32(%rbp), %rax
	.loc	2 28 12                         # src/asset/asset_init.c:28:12
	movq	%rcx, 8(%rax)
	.loc	2 29 10 is_stmt 1               # src/asset/asset_init.c:29:10
	movq	-32(%rbp), %rax
	.loc	2 29 2 is_stmt 0                # src/asset/asset_init.c:29:2
	addq	$32, %rsp
	popq	%rbp
	.cfi_def_cfa %rsp, 8
	retq
.Ltmp5:
.Lfunc_end0:
	.size	create_new_img, .Lfunc_end0-create_new_img
	.cfi_endproc
                                        # -- End function
	.globl	init_scene_asset                # -- Begin function init_scene_asset
	.p2align	4, 0x90
	.type	init_scene_asset,@function
init_scene_asset:                       # @init_scene_asset
.Lfunc_begin1:
	.loc	2 33 0 is_stmt 1                # src/asset/asset_init.c:33:0
	.cfi_startproc
# %bb.0:
	pushq	%rbp
	.cfi_def_cfa_offset 16
	.cfi_offset %rbp, -16
	movq	%rsp, %rbp
	.cfi_def_cfa_register %rbp
	subq	$16, %rsp
	movq	%rdi, -8(%rbp)
	movq	%rsi, -16(%rbp)
.Ltmp6:
	.loc	2 34 30 prologue_end            # src/asset/asset_init.c:34:30
	movq	-8(%rbp), %rdi
	.loc	2 34 37 is_stmt 0               # src/asset/asset_init.c:34:37
	movq	-8(%rbp), %rax
	.loc	2 34 44                         # src/asset/asset_init.c:34:44
	movq	56(%rax), %rsi
	.loc	2 34 52                         # src/asset/asset_init.c:34:52
	movq	-8(%rbp), %rax
	.loc	2 34 59                         # src/asset/asset_init.c:34:59
	movq	16(%rax), %rdx
	.loc	2 34 15                         # src/asset/asset_init.c:34:15
	callq	create_new_img
	movq	%rax, %rcx
	.loc	2 34 2                          # src/asset/asset_init.c:34:2
	movq	-16(%rbp), %rax
	.loc	2 34 13                         # src/asset/asset_init.c:34:13
	movq	%rcx, (%rax)
	.loc	2 35 1 is_stmt 1                # src/asset/asset_init.c:35:1
	addq	$16, %rsp
	popq	%rbp
	.cfi_def_cfa %rsp, 8
	retq
.Ltmp7:
.Lfunc_end1:
	.size	init_scene_asset, .Lfunc_end1-init_scene_asset
	.cfi_endproc
                                        # -- End function
	.globl	init_main_menu_asset            # -- Begin function init_main_menu_asset
	.p2align	4, 0x90
	.type	init_main_menu_asset,@function
init_main_menu_asset:                   # @init_main_menu_asset
.Lfunc_begin2:
	.loc	2 38 0                          # src/asset/asset_init.c:38:0
	.cfi_startproc
# %bb.0:
	pushq	%rbp
	.cfi_def_cfa_offset 16
	.cfi_offset %rbp, -16
	movq	%rsp, %rbp
	.cfi_def_cfa_register %rbp
	subq	$32, %rsp
	movq	%rdi, -8(%rbp)
	movq	%rsi, -16(%rbp)
	movq	%rdx, -24(%rbp)
.Ltmp8:
	.loc	2 39 19 prologue_end            # src/asset/asset_init.c:39:19
	movl	$16, %edi
	callq	malloc
	movq	%rax, %rcx
	.loc	2 39 2 is_stmt 0                # src/asset/asset_init.c:39:2
	movq	-16(%rbp), %rax
	.loc	2 39 17                         # src/asset/asset_init.c:39:17
	movq	%rcx, (%rax)
	.loc	2 40 46 is_stmt 1               # src/asset/asset_init.c:40:46
	movq	-24(%rbp), %rdi
	.loc	2 41 4                          # src/asset/asset_init.c:41:4
	movq	-16(%rbp), %rax
	.loc	2 41 15 is_stmt 0               # src/asset/asset_init.c:41:15
	movq	(%rax), %rdx
	.loc	2 41 28                         # src/asset/asset_init.c:41:28
	movq	-16(%rbp), %rax
	.loc	2 41 39                         # src/asset/asset_init.c:41:39
	movq	(%rax), %rcx
	.loc	2 41 44                         # src/asset/asset_init.c:41:44
	addq	$4, %rcx
	.loc	2 40 24 is_stmt 1               # src/asset/asset_init.c:40:24
	movabsq	$.L.str, %rsi
	callq	mlx_xpm_file_to_image
	movq	%rax, %rcx
	.loc	2 40 2 is_stmt 0                # src/asset/asset_init.c:40:2
	movq	-16(%rbp), %rax
	.loc	2 40 13                         # src/asset/asset_init.c:40:13
	movq	(%rax), %rax
	.loc	2 40 22                         # src/asset/asset_init.c:40:22
	movq	%rcx, 8(%rax)
	.loc	2 42 21 is_stmt 1               # src/asset/asset_init.c:42:21
	movq	-8(%rbp), %rax
	.loc	2 42 28 is_stmt 0               # src/asset/asset_init.c:42:28
	movq	56(%rax), %rax
	.loc	2 42 36                         # src/asset/asset_init.c:42:36
	movl	4(%rax), %eax
	.loc	2 42 42                         # src/asset/asset_init.c:42:42
	movl	$3, %ecx
	cltd
	idivl	%ecx
	movl	%eax, %ecx
	.loc	2 42 2                          # src/asset/asset_init.c:42:2
	movq	-16(%rbp), %rax
	.loc	2 42 19                         # src/asset/asset_init.c:42:19
	movl	%ecx, 16(%rax)
	.loc	2 43 21 is_stmt 1               # src/asset/asset_init.c:43:21
	movq	-8(%rbp), %rax
	.loc	2 43 28 is_stmt 0               # src/asset/asset_init.c:43:28
	movq	56(%rax), %rax
	.loc	2 43 36                         # src/asset/asset_init.c:43:36
	movl	(%rax), %eax
	.loc	2 43 43                         # src/asset/asset_init.c:43:43
	movl	$3, %ecx
	cltd
	idivl	%ecx
	movl	%eax, %ecx
	.loc	2 43 2                          # src/asset/asset_init.c:43:2
	movq	-16(%rbp), %rax
	.loc	2 43 19                         # src/asset/asset_init.c:43:19
	movl	%ecx, 20(%rax)
	.loc	2 44 1 is_stmt 1                # src/asset/asset_init.c:44:1
	addq	$32, %rsp
	popq	%rbp
	.cfi_def_cfa %rsp, 8
	retq
.Ltmp9:
.Lfunc_end2:
	.size	init_main_menu_asset, .Lfunc_end2-init_main_menu_asset
	.cfi_endproc
                                        # -- End function
	.globl	load_asset                      # -- Begin function load_asset
	.p2align	4, 0x90
	.type	load_asset,@function
load_asset:                             # @load_asset
.Lfunc_begin3:
	.loc	2 47 0                          # src/asset/asset_init.c:47:0
	.cfi_startproc
# %bb.0:
	pushq	%rbp
	.cfi_def_cfa_offset 16
	.cfi_offset %rbp, -16
	movq	%rsp, %rbp
	.cfi_def_cfa_register %rbp
	subq	$16, %rsp
	movq	%rdi, -8(%rbp)
.Ltmp10:
	.loc	2 48 19 prologue_end            # src/asset/asset_init.c:48:19
	movq	-8(%rbp), %rdi
	.loc	2 48 26 is_stmt 0               # src/asset/asset_init.c:48:26
	movq	-8(%rbp), %rax
	.loc	2 48 33                         # src/asset/asset_init.c:48:33
	movq	40(%rax), %rsi
	.loc	2 48 2                          # src/asset/asset_init.c:48:2
	callq	init_scene_asset
	.loc	2 49 23 is_stmt 1               # src/asset/asset_init.c:49:23
	movq	-8(%rbp), %rdi
	.loc	2 49 30 is_stmt 0               # src/asset/asset_init.c:49:30
	movq	-8(%rbp), %rax
	.loc	2 49 37                         # src/asset/asset_init.c:49:37
	movq	80(%rax), %rsi
	.loc	2 49 48                         # src/asset/asset_init.c:49:48
	movq	-8(%rbp), %rax
	.loc	2 49 55                         # src/asset/asset_init.c:49:55
	movq	16(%rax), %rdx
	.loc	2 49 2                          # src/asset/asset_init.c:49:2
	callq	init_main_menu_asset
	.loc	2 50 1 is_stmt 1                # src/asset/asset_init.c:50:1
	addq	$16, %rsp
	popq	%rbp
	.cfi_def_cfa %rsp, 8
	retq
.Ltmp11:
.Lfunc_end3:
	.size	load_asset, .Lfunc_end3-load_asset
	.cfi_endproc
                                        # -- End function
	.type	.L.str,@object                  # @.str
	.section	.rodata.str1.1,"aMS",@progbits,1
.L.str:
	.asciz	"asset/Untitled.xpm"
	.size	.L.str, 19

	.file	3 "/usr/include/x86_64-linux-gnu/bits" "types.h"
	.file	4 "/usr/include/x86_64-linux-gnu/bits" "stdint-uintn.h"
	.file	5 "/home/algadea/Dev/42/cube3d/misc/cub3d" "src/asset/../../include/cub3d_player.h"
	.section	".note.GNU-stack","",@progbits
	.addrsig
	.addrsig_sym create_new_img
	.addrsig_sym malloc
	.addrsig_sym print_error_then_exit_program
	.addrsig_sym mlx_new_image
	.addrsig_sym mlx_get_data_addr
	.addrsig_sym init_scene_asset
	.addrsig_sym init_main_menu_asset
	.addrsig_sym mlx_xpm_file_to_image