	.text
	.file	"render_minimap.c"
	.globl	render_square                   # -- Begin function render_square
	.p2align	4, 0x90
	.type	render_square,@function
render_square:                          # @render_square
.Lfunc_begin0:
	.file	1 "/home/algadea/Dev/42/cube3d/misc/cub3d" "src/render/render_minimap.c"
	.loc	1 16 0                          # src/render/render_minimap.c:16:0
	.cfi_startproc
# %bb.0:
	pushq	%rbp
	.cfi_def_cfa_offset 16
	.cfi_offset %rbp, -16
	movq	%rsp, %rbp
	.cfi_def_cfa_register %rbp
	subq	$32, %rsp
	movq	%rdi, -8(%rbp)
	movl	%esi, -12(%rbp)
	movl	%edx, -16(%rbp)
.Ltmp0:
	.loc	1 22 13 prologue_end            # src/render/render_minimap.c:22:13
	imull	$10, -12(%rbp), %eax
	.loc	1 22 9 is_stmt 0                # src/render/render_minimap.c:22:9
	movl	%eax, -20(%rbp)
	.loc	1 23 13 is_stmt 1               # src/render/render_minimap.c:23:13
	imull	$10, -16(%rbp), %eax
	.loc	1 23 9 is_stmt 0                # src/render/render_minimap.c:23:9
	movl	%eax, -24(%rbp)
	.loc	1 24 11 is_stmt 1               # src/render/render_minimap.c:24:11
	movl	-24(%rbp), %eax
	.loc	1 24 18 is_stmt 0               # src/render/render_minimap.c:24:18
	addl	$10, %eax
	.loc	1 24 9                          # src/render/render_minimap.c:24:9
	movl	%eax, -32(%rbp)
	.loc	1 25 11 is_stmt 1               # src/render/render_minimap.c:25:11
	movl	-20(%rbp), %eax
	.loc	1 25 18 is_stmt 0               # src/render/render_minimap.c:25:18
	addl	$10, %eax
	.loc	1 25 9                          # src/render/render_minimap.c:25:9
	movl	%eax, -28(%rbp)
.LBB0_1:                                # =>This Inner Loop Header: Depth=1
	.loc	1 26 9 is_stmt 1                # src/render/render_minimap.c:26:9
	movl	-24(%rbp), %eax
	.loc	1 26 16 is_stmt 0               # src/render/render_minimap.c:26:16
	cmpl	-32(%rbp), %eax
	.loc	1 26 2                          # src/render/render_minimap.c:26:2
	jge	.LBB0_3
# %bb.2:                                #   in Loop: Header=BB0_1 Depth=1
.Ltmp1:
	.loc	1 28 14 is_stmt 1               # src/render/render_minimap.c:28:14
	movq	-8(%rbp), %rax
	.loc	1 28 21 is_stmt 0               # src/render/render_minimap.c:28:21
	movq	(%rax), %rdi
	.loc	1 28 26                         # src/render/render_minimap.c:28:26
	movl	-20(%rbp), %esi
	.loc	1 28 34                         # src/render/render_minimap.c:28:34
	movl	-24(%rbp), %edx
	.loc	1 28 3                          # src/render/render_minimap.c:28:3
	movl	$11513775, %ecx                 # imm = 0xAFAFAF
	callq	draw_pixel
	.loc	1 29 9 is_stmt 1                # src/render/render_minimap.c:29:9
	movl	-24(%rbp), %eax
	addl	$1, %eax
	movl	%eax, -24(%rbp)
.Ltmp2:
	.loc	1 26 2                          # src/render/render_minimap.c:26:2
	jmp	.LBB0_1
.LBB0_3:
	.loc	1 31 2                          # src/render/render_minimap.c:31:2
	jmp	.LBB0_4
.LBB0_4:                                # =>This Inner Loop Header: Depth=1
	.loc	1 31 9 is_stmt 0                # src/render/render_minimap.c:31:9
	movl	-20(%rbp), %eax
	.loc	1 31 16                         # src/render/render_minimap.c:31:16
	cmpl	-28(%rbp), %eax
	.loc	1 31 2                          # src/render/render_minimap.c:31:2
	jge	.LBB0_6
# %bb.5:                                #   in Loop: Header=BB0_4 Depth=1
.Ltmp3:
	.loc	1 33 14 is_stmt 1               # src/render/render_minimap.c:33:14
	movq	-8(%rbp), %rax
	.loc	1 33 21 is_stmt 0               # src/render/render_minimap.c:33:21
	movq	(%rax), %rdi
	.loc	1 33 26                         # src/render/render_minimap.c:33:26
	movl	-20(%rbp), %esi
	.loc	1 33 34                         # src/render/render_minimap.c:33:34
	movl	-24(%rbp), %edx
	.loc	1 33 3                          # src/render/render_minimap.c:33:3
	movl	$11513775, %ecx                 # imm = 0xAFAFAF
	callq	draw_pixel
	.loc	1 34 9 is_stmt 1                # src/render/render_minimap.c:34:9
	movl	-20(%rbp), %eax
	addl	$1, %eax
	movl	%eax, -20(%rbp)
.Ltmp4:
	.loc	1 31 2                          # src/render/render_minimap.c:31:2
	jmp	.LBB0_4
.LBB0_6:
	.loc	1 36 11                         # src/render/render_minimap.c:36:11
	movl	-12(%rbp), %eax
	.loc	1 36 9 is_stmt 0                # src/render/render_minimap.c:36:9
	movl	%eax, -20(%rbp)
	.loc	1 37 11 is_stmt 1               # src/render/render_minimap.c:37:11
	movl	-16(%rbp), %eax
	.loc	1 37 9 is_stmt 0                # src/render/render_minimap.c:37:9
	movl	%eax, -24(%rbp)
.LBB0_7:                                # =>This Inner Loop Header: Depth=1
	.loc	1 38 9 is_stmt 1                # src/render/render_minimap.c:38:9
	movl	-20(%rbp), %eax
	.loc	1 38 16 is_stmt 0               # src/render/render_minimap.c:38:16
	cmpl	-28(%rbp), %eax
	.loc	1 38 2                          # src/render/render_minimap.c:38:2
	jge	.LBB0_9
# %bb.8:                                #   in Loop: Header=BB0_7 Depth=1
.Ltmp5:
	.loc	1 40 14 is_stmt 1               # src/render/render_minimap.c:40:14
	movq	-8(%rbp), %rax
	.loc	1 40 21 is_stmt 0               # src/render/render_minimap.c:40:21
	movq	(%rax), %rdi
	.loc	1 40 26                         # src/render/render_minimap.c:40:26
	movl	-20(%rbp), %esi
	.loc	1 40 34                         # src/render/render_minimap.c:40:34
	movl	-24(%rbp), %edx
	.loc	1 40 3                          # src/render/render_minimap.c:40:3
	movl	$11513775, %ecx                 # imm = 0xAFAFAF
	callq	draw_pixel
	.loc	1 41 9 is_stmt 1                # src/render/render_minimap.c:41:9
	movl	-20(%rbp), %eax
	addl	$1, %eax
	movl	%eax, -20(%rbp)
.Ltmp6:
	.loc	1 38 2                          # src/render/render_minimap.c:38:2
	jmp	.LBB0_7
.LBB0_9:
	.loc	1 43 2                          # src/render/render_minimap.c:43:2
	jmp	.LBB0_10
.LBB0_10:                               # =>This Inner Loop Header: Depth=1
	.loc	1 43 9 is_stmt 0                # src/render/render_minimap.c:43:9
	movl	-24(%rbp), %eax
	.loc	1 43 16                         # src/render/render_minimap.c:43:16
	cmpl	-32(%rbp), %eax
	.loc	1 43 2                          # src/render/render_minimap.c:43:2
	jge	.LBB0_12
# %bb.11:                               #   in Loop: Header=BB0_10 Depth=1
.Ltmp7:
	.loc	1 45 14 is_stmt 1               # src/render/render_minimap.c:45:14
	movq	-8(%rbp), %rax
	.loc	1 45 21 is_stmt 0               # src/render/render_minimap.c:45:21
	movq	(%rax), %rdi
	.loc	1 45 26                         # src/render/render_minimap.c:45:26
	movl	-20(%rbp), %esi
	.loc	1 45 34                         # src/render/render_minimap.c:45:34
	movl	-24(%rbp), %edx
	.loc	1 45 3                          # src/render/render_minimap.c:45:3
	movl	$11513775, %ecx                 # imm = 0xAFAFAF
	callq	draw_pixel
	.loc	1 46 9 is_stmt 1                # src/render/render_minimap.c:46:9
	movl	-24(%rbp), %eax
	addl	$1, %eax
	movl	%eax, -24(%rbp)
.Ltmp8:
	.loc	1 43 2                          # src/render/render_minimap.c:43:2
	jmp	.LBB0_10
.LBB0_12:
	.loc	1 48 1                          # src/render/render_minimap.c:48:1
	addq	$32, %rsp
	popq	%rbp
	.cfi_def_cfa %rsp, 8
	retq
.Ltmp9:
.Lfunc_end0:
	.size	render_square, .Lfunc_end0-render_square
	.cfi_endproc
                                        # -- End function
	.globl	render_wall                     # -- Begin function render_wall
	.p2align	4, 0x90
	.type	render_wall,@function
render_wall:                            # @render_wall
.Lfunc_begin1:
	.loc	1 51 0                          # src/render/render_minimap.c:51:0
	.cfi_startproc
# %bb.0:
	pushq	%rbp
	.cfi_def_cfa_offset 16
	.cfi_offset %rbp, -16
	movq	%rsp, %rbp
	.cfi_def_cfa_register %rbp
	subq	$32, %rsp
	movq	%rdi, -8(%rbp)
	movl	%esi, -12(%rbp)
	movl	%edx, -16(%rbp)
.Ltmp10:
	.loc	1 57 13 prologue_end            # src/render/render_minimap.c:57:13
	imull	$10, -16(%rbp), %eax
	.loc	1 57 9 is_stmt 0                # src/render/render_minimap.c:57:9
	movl	%eax, -24(%rbp)
	.loc	1 58 13 is_stmt 1               # src/render/render_minimap.c:58:13
	imull	$10, -12(%rbp), %eax
	.loc	1 58 9 is_stmt 0                # src/render/render_minimap.c:58:9
	movl	%eax, -20(%rbp)
	.loc	1 59 11 is_stmt 1               # src/render/render_minimap.c:59:11
	movl	-24(%rbp), %eax
	.loc	1 59 18 is_stmt 0               # src/render/render_minimap.c:59:18
	addl	$10, %eax
	.loc	1 59 9                          # src/render/render_minimap.c:59:9
	movl	%eax, -32(%rbp)
	.loc	1 60 11 is_stmt 1               # src/render/render_minimap.c:60:11
	movl	-20(%rbp), %eax
	.loc	1 60 18 is_stmt 0               # src/render/render_minimap.c:60:18
	addl	$10, %eax
	.loc	1 60 9                          # src/render/render_minimap.c:60:9
	movl	%eax, -28(%rbp)
.LBB1_1:                                # =>This Loop Header: Depth=1
                                        #     Child Loop BB1_3 Depth 2
	.loc	1 61 9 is_stmt 1                # src/render/render_minimap.c:61:9
	movl	-24(%rbp), %eax
	.loc	1 61 16 is_stmt 0               # src/render/render_minimap.c:61:16
	cmpl	-32(%rbp), %eax
	.loc	1 61 2                          # src/render/render_minimap.c:61:2
	jge	.LBB1_6
# %bb.2:                                #   in Loop: Header=BB1_1 Depth=1
.Ltmp11:
	.loc	1 63 14 is_stmt 1               # src/render/render_minimap.c:63:14
	imull	$10, -12(%rbp), %eax
	.loc	1 63 10 is_stmt 0               # src/render/render_minimap.c:63:10
	movl	%eax, -20(%rbp)
.LBB1_3:                                #   Parent Loop BB1_1 Depth=1
                                        # =>  This Inner Loop Header: Depth=2
	.loc	1 64 10 is_stmt 1               # src/render/render_minimap.c:64:10
	movl	-20(%rbp), %eax
	.loc	1 64 17 is_stmt 0               # src/render/render_minimap.c:64:17
	cmpl	-28(%rbp), %eax
	.loc	1 64 3                          # src/render/render_minimap.c:64:3
	jge	.LBB1_5
# %bb.4:                                #   in Loop: Header=BB1_3 Depth=2
.Ltmp12:
	.loc	1 66 15 is_stmt 1               # src/render/render_minimap.c:66:15
	movq	-8(%rbp), %rax
	.loc	1 66 22 is_stmt 0               # src/render/render_minimap.c:66:22
	movq	(%rax), %rdi
	.loc	1 66 27                         # src/render/render_minimap.c:66:27
	movl	-20(%rbp), %esi
	.loc	1 66 35                         # src/render/render_minimap.c:66:35
	movl	-24(%rbp), %edx
	.loc	1 66 4                          # src/render/render_minimap.c:66:4
	movl	$11513775, %ecx                 # imm = 0xAFAFAF
	callq	draw_pixel
	.loc	1 67 10 is_stmt 1               # src/render/render_minimap.c:67:10
	movl	-20(%rbp), %eax
	addl	$1, %eax
	movl	%eax, -20(%rbp)
.Ltmp13:
	.loc	1 64 3                          # src/render/render_minimap.c:64:3
	jmp	.LBB1_3
.LBB1_5:                                #   in Loop: Header=BB1_1 Depth=1
	.loc	1 69 9                          # src/render/render_minimap.c:69:9
	movl	-24(%rbp), %eax
	addl	$1, %eax
	movl	%eax, -24(%rbp)
.Ltmp14:
	.loc	1 61 2                          # src/render/render_minimap.c:61:2
	jmp	.LBB1_1
.LBB1_6:
	.loc	1 71 1                          # src/render/render_minimap.c:71:1
	addq	$32, %rsp
	popq	%rbp
	.cfi_def_cfa %rsp, 8
	retq
.Ltmp15:
.Lfunc_end1:
	.size	render_wall, .Lfunc_end1-render_wall
	.cfi_endproc
                                        # -- End function
	.globl	render_minimap                  # -- Begin function render_minimap
	.p2align	4, 0x90
	.type	render_minimap,@function
render_minimap:                         # @render_minimap
.Lfunc_begin2:
	.loc	1 74 0                          # src/render/render_minimap.c:74:0
	.cfi_startproc
# %bb.0:
	pushq	%rbp
	.cfi_def_cfa_offset 16
	.cfi_offset %rbp, -16
	movq	%rsp, %rbp
	.cfi_def_cfa_register %rbp
	subq	$32, %rsp
	movq	%rdi, -8(%rbp)
	movq	%rsi, -16(%rbp)
	movq	%rdx, -24(%rbp)
.Ltmp16:
	.loc	1 79 4 prologue_end             # src/render/render_minimap.c:79:4
	movl	$0, -32(%rbp)
.LBB2_1:                                # =>This Loop Header: Depth=1
                                        #     Child Loop BB2_3 Depth 2
	.loc	1 80 9                          # src/render/render_minimap.c:80:9
	movq	-8(%rbp), %rax
	.loc	1 80 16 is_stmt 0               # src/render/render_minimap.c:80:16
	movq	24(%rax), %rax
	.loc	1 80 21                         # src/render/render_minimap.c:80:21
	movq	56(%rax), %rax
	.loc	1 80 9                          # src/render/render_minimap.c:80:9
	movslq	-32(%rbp), %rcx
	.loc	1 80 2                          # src/render/render_minimap.c:80:2
	cmpq	$0, (%rax,%rcx,8)
	je	.LBB2_9
# %bb.2:                                #   in Loop: Header=BB2_1 Depth=1
.Ltmp17:
	.loc	1 82 5 is_stmt 1                # src/render/render_minimap.c:82:5
	movl	$0, -28(%rbp)
.LBB2_3:                                #   Parent Loop BB2_1 Depth=1
                                        # =>  This Inner Loop Header: Depth=2
	.loc	1 83 10                         # src/render/render_minimap.c:83:10
	movq	-8(%rbp), %rax
	.loc	1 83 17 is_stmt 0               # src/render/render_minimap.c:83:17
	movq	24(%rax), %rax
	.loc	1 83 22                         # src/render/render_minimap.c:83:22
	movq	56(%rax), %rax
	.loc	1 83 10                         # src/render/render_minimap.c:83:10
	movslq	-32(%rbp), %rcx
	movq	(%rax,%rcx,8), %rax
	movslq	-28(%rbp), %rcx
	.loc	1 83 3                          # src/render/render_minimap.c:83:3
	cmpb	$0, (%rax,%rcx)
	je	.LBB2_8
# %bb.4:                                #   in Loop: Header=BB2_3 Depth=2
.Ltmp18:
	.loc	1 85 8 is_stmt 1                # src/render/render_minimap.c:85:8
	movq	-8(%rbp), %rax
	.loc	1 85 15 is_stmt 0               # src/render/render_minimap.c:85:15
	movq	24(%rax), %rax
	.loc	1 85 20                         # src/render/render_minimap.c:85:20
	movq	56(%rax), %rax
	.loc	1 85 8                          # src/render/render_minimap.c:85:8
	movslq	-32(%rbp), %rcx
	movq	(%rax,%rcx,8), %rax
	movslq	-28(%rbp), %rcx
	movsbl	(%rax,%rcx), %eax
	.loc	1 85 31                         # src/render/render_minimap.c:85:31
	cmpl	$49, %eax
.Ltmp19:
	.loc	1 85 8                          # src/render/render_minimap.c:85:8
	jne	.LBB2_6
# %bb.5:                                #   in Loop: Header=BB2_3 Depth=2
.Ltmp20:
	.loc	1 86 17 is_stmt 1               # src/render/render_minimap.c:86:17
	movq	-16(%rbp), %rdi
	.loc	1 86 24 is_stmt 0               # src/render/render_minimap.c:86:24
	movl	-28(%rbp), %esi
	.loc	1 86 27                         # src/render/render_minimap.c:86:27
	movl	-32(%rbp), %edx
	.loc	1 86 5                          # src/render/render_minimap.c:86:5
	callq	render_wall
	jmp	.LBB2_7
.LBB2_6:                                #   in Loop: Header=BB2_3 Depth=2
	.loc	1 88 19 is_stmt 1               # src/render/render_minimap.c:88:19
	movq	-16(%rbp), %rdi
	.loc	1 88 26 is_stmt 0               # src/render/render_minimap.c:88:26
	movl	-28(%rbp), %esi
	.loc	1 88 29                         # src/render/render_minimap.c:88:29
	movl	-32(%rbp), %edx
	.loc	1 88 5                          # src/render/render_minimap.c:88:5
	callq	render_square
.Ltmp21:
.LBB2_7:                                #   in Loop: Header=BB2_3 Depth=2
	.loc	1 89 5 is_stmt 1                # src/render/render_minimap.c:89:5
	movl	-28(%rbp), %eax
	addl	$1, %eax
	movl	%eax, -28(%rbp)
.Ltmp22:
	.loc	1 83 3                          # src/render/render_minimap.c:83:3
	jmp	.LBB2_3
.LBB2_8:                                #   in Loop: Header=BB2_1 Depth=1
	.loc	1 91 4                          # src/render/render_minimap.c:91:4
	movl	-32(%rbp), %eax
	addl	$1, %eax
	movl	%eax, -32(%rbp)
.Ltmp23:
	.loc	1 80 2                          # src/render/render_minimap.c:80:2
	jmp	.LBB2_1
.LBB2_9:
	.loc	1 93 1                          # src/render/render_minimap.c:93:1
	addq	$32, %rsp
	popq	%rbp
	.cfi_def_cfa %rsp, 8
	retq
.Ltmp24:
.Lfunc_end2:
	.size	render_minimap, .Lfunc_end2-render_minimap
	.cfi_endproc
                                        # -- End function
	.file	2 "/home/algadea/Dev/42/cube3d/misc/cub3d" "src/render/../../include/cub3d.h"
	.file	3 "/usr/include/x86_64-linux-gnu/bits" "types.h"
	.file	4 "/usr/include/x86_64-linux-gnu/bits" "stdint-uintn.h"
	.file	5 "/home/algadea/Dev/42/cube3d/misc/cub3d" "src/render/../../include/cub3d_player.h"
	.section	".note.GNU-stack","",@progbits
	.addrsig
	.addrsig_sym render_square
	.addrsig_sym draw_pixel
	.addrsig_sym render_wall