	.text
	.file	"render.c"
	.globl	clean_scene_img                 # -- Begin function clean_scene_img
	.p2align	4, 0x90
	.type	clean_scene_img,@function
clean_scene_img:                        # @clean_scene_img
.Lfunc_begin0:
	.file	1 "/home/algadea/Dev/42/cube3d/misc/cub3d" "src/render/render.c"
	.loc	1 16 0                          # src/render/render.c:16:0
	.cfi_startproc
# %bb.0:
	pushq	%rbp
	.cfi_def_cfa_offset 16
	.cfi_offset %rbp, -16
	movq	%rsp, %rbp
	.cfi_def_cfa_register %rbp
	subq	$32, %rsp
	movq	%rdi, -8(%rbp)
	movq	%rsi, -16(%rbp)
.Ltmp0:
	.loc	1 20 4 prologue_end             # src/render/render.c:20:4
	movl	$0, -24(%rbp)
.LBB0_1:                                # =>This Loop Header: Depth=1
                                        #     Child Loop BB0_3 Depth 2
	.loc	1 21 9                          # src/render/render.c:21:9
	movl	-24(%rbp), %eax
	.loc	1 21 13 is_stmt 0               # src/render/render.c:21:13
	movq	-8(%rbp), %rcx
	.loc	1 21 11                         # src/render/render.c:21:11
	cmpl	(%rcx), %eax
	.loc	1 21 2                          # src/render/render.c:21:2
	jge	.LBB0_6
# %bb.2:                                #   in Loop: Header=BB0_1 Depth=1
.Ltmp1:
	.loc	1 23 5 is_stmt 1                # src/render/render.c:23:5
	movl	$0, -20(%rbp)
.LBB0_3:                                #   Parent Loop BB0_1 Depth=1
                                        # =>  This Inner Loop Header: Depth=2
	.loc	1 24 10                         # src/render/render.c:24:10
	movl	-20(%rbp), %eax
	.loc	1 24 14 is_stmt 0               # src/render/render.c:24:14
	movq	-8(%rbp), %rcx
	.loc	1 24 12                         # src/render/render.c:24:12
	cmpl	4(%rcx), %eax
	.loc	1 24 3                          # src/render/render.c:24:3
	jge	.LBB0_5
# %bb.4:                                #   in Loop: Header=BB0_3 Depth=2
.Ltmp2:
	.loc	1 26 15 is_stmt 1               # src/render/render.c:26:15
	movq	-16(%rbp), %rax
	.loc	1 26 22 is_stmt 0               # src/render/render.c:26:22
	movq	(%rax), %rdi
	.loc	1 26 27                         # src/render/render.c:26:27
	movl	-20(%rbp), %esi
	.loc	1 26 30                         # src/render/render.c:26:30
	movl	-24(%rbp), %edx
	.loc	1 26 4                          # src/render/render.c:26:4
	xorl	%ecx, %ecx
	callq	draw_pixel
	.loc	1 27 5 is_stmt 1                # src/render/render.c:27:5
	movl	-20(%rbp), %eax
	addl	$1, %eax
	movl	%eax, -20(%rbp)
.Ltmp3:
	.loc	1 24 3                          # src/render/render.c:24:3
	jmp	.LBB0_3
.LBB0_5:                                #   in Loop: Header=BB0_1 Depth=1
	.loc	1 29 4                          # src/render/render.c:29:4
	movl	-24(%rbp), %eax
	addl	$1, %eax
	movl	%eax, -24(%rbp)
.Ltmp4:
	.loc	1 21 2                          # src/render/render.c:21:2
	jmp	.LBB0_1
.LBB0_6:
	.loc	1 31 1                          # src/render/render.c:31:1
	addq	$32, %rsp
	popq	%rbp
	.cfi_def_cfa %rsp, 8
	retq
.Ltmp5:
.Lfunc_end0:
	.size	clean_scene_img, .Lfunc_end0-clean_scene_img
	.cfi_endproc
                                        # -- End function
	.globl	draw_pixel                      # -- Begin function draw_pixel
	.p2align	4, 0x90
	.type	draw_pixel,@function
draw_pixel:                             # @draw_pixel
.Lfunc_begin1:
	.loc	1 34 0                          # src/render/render.c:34:0
	.cfi_startproc
# %bb.0:
	pushq	%rbp
	.cfi_def_cfa_offset 16
	.cfi_offset %rbp, -16
	movq	%rsp, %rbp
	.cfi_def_cfa_register %rbp
	movq	%rdi, -8(%rbp)
	movl	%esi, -12(%rbp)
	movl	%edx, -16(%rbp)
	movl	%ecx, -20(%rbp)
.Ltmp6:
	.loc	1 37 10 prologue_end            # src/render/render.c:37:10
	movq	-8(%rbp), %rax
	.loc	1 37 15 is_stmt 0               # src/render/render.c:37:15
	movq	8(%rax), %rax
	movq	%rax, -40(%rbp)                 # 8-byte Spill
	.loc	1 37 23                         # src/render/render.c:37:23
	movl	-16(%rbp), %ecx
	.loc	1 37 27                         # src/render/render.c:37:27
	movq	-8(%rbp), %rax
	.loc	1 37 25                         # src/render/render.c:37:25
	imull	20(%rax), %ecx
	.loc	1 37 44                         # src/render/render.c:37:44
	movl	-12(%rbp), %eax
	movl	%eax, -44(%rbp)                 # 4-byte Spill
	.loc	1 37 49                         # src/render/render.c:37:49
	movq	-8(%rbp), %rax
	.loc	1 37 54                         # src/render/render.c:37:54
	movl	24(%rax), %eax
	.loc	1 37 58                         # src/render/render.c:37:58
	movl	$8, %esi
	cltd
	idivl	%esi
	movl	-44(%rbp), %edx                 # 4-byte Reload
	movl	%eax, %esi
	movq	-40(%rbp), %rax                 # 8-byte Reload
	.loc	1 37 46                         # src/render/render.c:37:46
	imull	%esi, %edx
	.loc	1 37 42                         # src/render/render.c:37:42
	addl	%edx, %ecx
	.loc	1 37 20                         # src/render/render.c:37:20
	movslq	%ecx, %rcx
	addq	%rcx, %rax
	.loc	1 37 8                          # src/render/render.c:37:8
	movq	%rax, -32(%rbp)
	.loc	1 38 18 is_stmt 1               # src/render/render.c:38:18
	movl	-20(%rbp), %ecx
	.loc	1 38 10 is_stmt 0               # src/render/render.c:38:10
	movq	-32(%rbp), %rax
	.loc	1 38 16                         # src/render/render.c:38:16
	movl	%ecx, (%rax)
	.loc	1 39 1 is_stmt 1                # src/render/render.c:39:1
	popq	%rbp
	.cfi_def_cfa %rsp, 8
	retq
.Ltmp7:
.Lfunc_end1:
	.size	draw_pixel, .Lfunc_end1-draw_pixel
	.cfi_endproc
                                        # -- End function
	.file	2 "/home/algadea/Dev/42/cube3d/misc/cub3d" "src/render/../../include/cub3d.h"
	.section	".note.GNU-stack","",@progbits
	.addrsig
	.addrsig_sym draw_pixel