	.text
	.file	"hook_menu.c"
	.file	1 "/home/algadea/Dev/42/cube3d/misc/cub3d" "src/hook/../../include/cub3d.h"
	.globl	menu_loop_hook                  # -- Begin function menu_loop_hook
	.p2align	4, 0x90
	.type	menu_loop_hook,@function
menu_loop_hook:                         # @menu_loop_hook
.Lfunc_begin0:
	.file	2 "/home/algadea/Dev/42/cube3d/misc/cub3d" "src/hook/hook_menu.c"
	.loc	2 16 0                          # src/hook/hook_menu.c:16:0
	.cfi_startproc
# %bb.0:
	pushq	%rbp
	.cfi_def_cfa_offset 16
	.cfi_offset %rbp, -16
	movq	%rsp, %rbp
	.cfi_def_cfa_register %rbp
	subq	$16, %rsp
	movq	%rdi, -8(%rbp)
.Ltmp0:
	.loc	2 18 14 prologue_end            # src/hook/hook_menu.c:18:14
	movq	-8(%rbp), %rdi
	.loc	2 18 2 is_stmt 0                # src/hook/hook_menu.c:18:2
	callq	render_menu
	.loc	2 19 2 is_stmt 1                # src/hook/hook_menu.c:19:2
	xorl	%eax, %eax
	addq	$16, %rsp
	popq	%rbp
	.cfi_def_cfa %rsp, 8
	retq
.Ltmp1:
.Lfunc_end0:
	.size	menu_loop_hook, .Lfunc_end0-menu_loop_hook
	.cfi_endproc
                                        # -- End function
	.globl	menu_mouse_hook                 # -- Begin function menu_mouse_hook
	.p2align	4, 0x90
	.type	menu_mouse_hook,@function
menu_mouse_hook:                        # @menu_mouse_hook
.Lfunc_begin1:
	.loc	2 23 0                          # src/hook/hook_menu.c:23:0
	.cfi_startproc
# %bb.0:
	pushq	%rbp
	.cfi_def_cfa_offset 16
	.cfi_offset %rbp, -16
	movq	%rsp, %rbp
	.cfi_def_cfa_register %rbp
	subq	$16, %rsp
	movl	%edi, -4(%rbp)
.Ltmp2:
	.loc	2 24 13 prologue_end            # src/hook/hook_menu.c:24:13
	cmpl	$1, -4(%rbp)
.Ltmp3:
	.loc	2 24 6 is_stmt 0                # src/hook/hook_menu.c:24:6
	jne	.LBB1_2
# %bb.1:
.Ltmp4:
	.loc	2 25 3 is_stmt 1                # src/hook/hook_menu.c:25:3
	movabsq	$.L.str, %rdi
	movb	$0, %al
	callq	printf
.Ltmp5:
.LBB1_2:
	.loc	2 26 13                         # src/hook/hook_menu.c:26:13
	cmpl	$2, -4(%rbp)
.Ltmp6:
	.loc	2 26 6 is_stmt 0                # src/hook/hook_menu.c:26:6
	jne	.LBB1_4
# %bb.3:
.Ltmp7:
	.loc	2 27 3 is_stmt 1                # src/hook/hook_menu.c:27:3
	movabsq	$.L.str.1, %rdi
	movb	$0, %al
	callq	printf
.Ltmp8:
.LBB1_4:
	.loc	2 28 13                         # src/hook/hook_menu.c:28:13
	cmpl	$3, -4(%rbp)
.Ltmp9:
	.loc	2 28 6 is_stmt 0                # src/hook/hook_menu.c:28:6
	jne	.LBB1_6
# %bb.5:
.Ltmp10:
	.loc	2 29 3 is_stmt 1                # src/hook/hook_menu.c:29:3
	movabsq	$.L.str.2, %rdi
	movb	$0, %al
	callq	printf
.Ltmp11:
.LBB1_6:
	.loc	2 30 13                         # src/hook/hook_menu.c:30:13
	cmpl	$4, -4(%rbp)
.Ltmp12:
	.loc	2 30 6 is_stmt 0                # src/hook/hook_menu.c:30:6
	jne	.LBB1_8
# %bb.7:
.Ltmp13:
	.loc	2 31 3 is_stmt 1                # src/hook/hook_menu.c:31:3
	movabsq	$.L.str.3, %rdi
	movb	$0, %al
	callq	printf
.Ltmp14:
.LBB1_8:
	.loc	2 32 13                         # src/hook/hook_menu.c:32:13
	cmpl	$5, -4(%rbp)
.Ltmp15:
	.loc	2 32 6 is_stmt 0                # src/hook/hook_menu.c:32:6
	jne	.LBB1_10
# %bb.9:
.Ltmp16:
	.loc	2 33 3 is_stmt 1                # src/hook/hook_menu.c:33:3
	movabsq	$.L.str.4, %rdi
	movb	$0, %al
	callq	printf
.Ltmp17:
.LBB1_10:
	.loc	2 34 2                          # src/hook/hook_menu.c:34:2
	xorl	%eax, %eax
	addq	$16, %rsp
	popq	%rbp
	.cfi_def_cfa %rsp, 8
	retq
.Ltmp18:
.Lfunc_end1:
	.size	menu_mouse_hook, .Lfunc_end1-menu_mouse_hook
	.cfi_endproc
                                        # -- End function
	.globl	menu_key_hook                   # -- Begin function menu_key_hook
	.p2align	4, 0x90
	.type	menu_key_hook,@function
menu_key_hook:                          # @menu_key_hook
.Lfunc_begin2:
	.loc	2 38 0                          # src/hook/hook_menu.c:38:0
	.cfi_startproc
# %bb.0:
	pushq	%rbp
	.cfi_def_cfa_offset 16
	.cfi_offset %rbp, -16
	movq	%rsp, %rbp
	.cfi_def_cfa_register %rbp
	subq	$16, %rsp
	movl	%edi, -4(%rbp)
	movq	%rsi, -16(%rbp)
.Ltmp19:
	.loc	2 39 13 prologue_end            # src/hook/hook_menu.c:39:13
	cmpl	$65307, -4(%rbp)                # imm = 0xFF1B
.Ltmp20:
	.loc	2 39 6 is_stmt 0                # src/hook/hook_menu.c:39:6
	jne	.LBB2_2
# %bb.1:
.Ltmp21:
	.loc	2 40 13 is_stmt 1               # src/hook/hook_menu.c:40:13
	movq	-16(%rbp), %rdi
	.loc	2 40 3 is_stmt 0                # src/hook/hook_menu.c:40:3
	callq	exit_hook
.Ltmp22:
.LBB2_2:
	.loc	2 41 13 is_stmt 1               # src/hook/hook_menu.c:41:13
	cmpl	$65293, -4(%rbp)                # imm = 0xFF0D
.Ltmp23:
	.loc	2 41 6 is_stmt 0                # src/hook/hook_menu.c:41:6
	jne	.LBB2_4
# %bb.3:
.Ltmp24:
	.loc	2 43 18 is_stmt 1               # src/hook/hook_menu.c:43:18
	movq	-16(%rbp), %rdi
	.loc	2 43 3 is_stmt 0                # src/hook/hook_menu.c:43:3
	callq	set_level_loop
	.loc	2 44 3 is_stmt 1                # src/hook/hook_menu.c:44:3
	movq	-16(%rbp), %rax
	.loc	2 44 24 is_stmt 0               # src/hook/hook_menu.c:44:24
	movb	$1, (%rax)
	.loc	2 45 20 is_stmt 1               # src/hook/hook_menu.c:45:20
	movq	-16(%rbp), %rax
	.loc	2 45 27 is_stmt 0               # src/hook/hook_menu.c:45:27
	movq	16(%rax), %rdi
	.loc	2 45 36                         # src/hook/hook_menu.c:45:36
	movq	-16(%rbp), %rax
	.loc	2 45 43                         # src/hook/hook_menu.c:45:43
	movq	8(%rax), %rsi
	.loc	2 45 3                          # src/hook/hook_menu.c:45:3
	callq	mlx_clear_window
.Ltmp25:
.LBB2_4:
	.loc	2 47 2 is_stmt 1                # src/hook/hook_menu.c:47:2
	xorl	%eax, %eax
	addq	$16, %rsp
	popq	%rbp
	.cfi_def_cfa %rsp, 8
	retq
.Ltmp26:
.Lfunc_end2:
	.size	menu_key_hook, .Lfunc_end2-menu_key_hook
	.cfi_endproc
                                        # -- End function
	.globl	set_menu_loop                   # -- Begin function set_menu_loop
	.p2align	4, 0x90
	.type	set_menu_loop,@function
set_menu_loop:                          # @set_menu_loop
.Lfunc_begin3:
	.loc	2 51 0                          # src/hook/hook_menu.c:51:0
	.cfi_startproc
# %bb.0:
	pushq	%rbp
	.cfi_def_cfa_offset 16
	.cfi_offset %rbp, -16
	movq	%rsp, %rbp
	.cfi_def_cfa_register %rbp
	subq	$16, %rsp
	movq	%rdi, -8(%rbp)
.Ltmp27:
	.loc	2 52 11 prologue_end            # src/hook/hook_menu.c:52:11
	movq	-8(%rbp), %rax
	.loc	2 52 18 is_stmt 0               # src/hook/hook_menu.c:52:18
	movq	8(%rax), %rdi
	.loc	2 53 36 is_stmt 1               # src/hook/hook_menu.c:53:36
	movq	-8(%rbp), %r8
	.loc	2 52 2                          # src/hook/hook_menu.c:52:2
	movl	$17, %esi
	movl	$131072, %edx                   # imm = 0x20000
	movabsq	$exit_hook, %rcx
	callq	mlx_hook
	.loc	2 54 16                         # src/hook/hook_menu.c:54:16
	movq	-8(%rbp), %rax
	.loc	2 54 23 is_stmt 0               # src/hook/hook_menu.c:54:23
	movq	16(%rax), %rdi
	.loc	2 54 49                         # src/hook/hook_menu.c:54:49
	movq	-8(%rbp), %rdx
	.loc	2 54 2                          # src/hook/hook_menu.c:54:2
	movabsq	$menu_loop_hook, %rsi
	callq	mlx_loop_hook
	.loc	2 55 11 is_stmt 1               # src/hook/hook_menu.c:55:11
	movq	-8(%rbp), %rax
	.loc	2 55 18 is_stmt 0               # src/hook/hook_menu.c:55:18
	movq	8(%rax), %rdi
	.loc	2 55 67                         # src/hook/hook_menu.c:55:67
	movq	-8(%rbp), %r8
	.loc	2 55 2                          # src/hook/hook_menu.c:55:2
	movl	$2, %esi
	movl	$1, %edx
	movabsq	$menu_key_hook, %rcx
	callq	mlx_hook
	.loc	2 56 17 is_stmt 1               # src/hook/hook_menu.c:56:17
	movq	-8(%rbp), %rax
	.loc	2 56 24 is_stmt 0               # src/hook/hook_menu.c:56:24
	movq	8(%rax), %rdi
	.loc	2 56 51                         # src/hook/hook_menu.c:56:51
	movq	-8(%rbp), %rdx
	.loc	2 56 2                          # src/hook/hook_menu.c:56:2
	movabsq	$menu_mouse_hook, %rsi
	callq	mlx_mouse_hook
	.loc	2 57 1 is_stmt 1                # src/hook/hook_menu.c:57:1
	addq	$16, %rsp
	popq	%rbp
	.cfi_def_cfa %rsp, 8
	retq
.Ltmp28:
.Lfunc_end3:
	.size	set_menu_loop, .Lfunc_end3-set_menu_loop
	.cfi_endproc
                                        # -- End function
	.type	.L.str,@object                  # @.str
	.section	.rodata.str1.1,"aMS",@progbits,1
.L.str:
	.asciz	"BUTTON 1\n"
	.size	.L.str, 10

	.type	.L.str.1,@object                # @.str.1
.L.str.1:
	.asciz	"BUTTON 2\n"
	.size	.L.str.1, 10

	.type	.L.str.2,@object                # @.str.2
.L.str.2:
	.asciz	"BUTTON 3\n"
	.size	.L.str.2, 10

	.type	.L.str.3,@object                # @.str.3
.L.str.3:
	.asciz	"BUTTON 4\n"
	.size	.L.str.3, 10

	.type	.L.str.4,@object                # @.str.4
.L.str.4:
	.asciz	"BUTTON 5\n"
	.size	.L.str.4, 10

	.file	3 "/usr/include/x86_64-linux-gnu/bits" "types.h"
	.file	4 "/usr/include/x86_64-linux-gnu/bits" "stdint-uintn.h"
	.file	5 "/home/algadea/Dev/42/cube3d/misc/cub3d" "src/hook/../../include/cub3d_player.h"
	.section	".note.GNU-stack","",@progbits
	.addrsig
	.addrsig_sym menu_loop_hook
	.addrsig_sym render_menu
	.addrsig_sym menu_mouse_hook
	.addrsig_sym printf
	.addrsig_sym menu_key_hook
	.addrsig_sym exit_hook
	.addrsig_sym set_level_loop
	.addrsig_sym mlx_clear_window
	.addrsig_sym mlx_hook
	.addrsig_sym mlx_loop_hook
	.addrsig_sym mlx_mouse_hook