	.text
	.file	"hook_level.c"
	.file	1 "/home/algadea/Dev/42/cube3d/misc/cub3d" "src/hook/../../include/cub3d.h"
	.globl	level_loop_hook                 # -- Begin function level_loop_hook
	.p2align	4, 0x90
	.type	level_loop_hook,@function
level_loop_hook:                        # @level_loop_hook
.Lfunc_begin0:
	.file	2 "/home/algadea/Dev/42/cube3d/misc/cub3d" "src/hook/hook_level.c"
	.loc	2 16 0                          # src/hook/hook_level.c:16:0
	.cfi_startproc
# %bb.0:
	pushq	%rbp
	.cfi_def_cfa_offset 16
	.cfi_offset %rbp, -16
	movq	%rsp, %rbp
	.cfi_def_cfa_register %rbp
	subq	$16, %rsp
	movq	%rdi, -8(%rbp)
.Ltmp0:
	.loc	2 18 15 prologue_end            # src/hook/hook_level.c:18:15
	movq	-8(%rbp), %rdi
	.loc	2 18 2 is_stmt 0                # src/hook/hook_level.c:18:2
	callq	render_level
	.loc	2 19 2 is_stmt 1                # src/hook/hook_level.c:19:2
	xorl	%eax, %eax
	addq	$16, %rsp
	popq	%rbp
	.cfi_def_cfa %rsp, 8
	retq
.Ltmp1:
.Lfunc_end0:
	.size	level_loop_hook, .Lfunc_end0-level_loop_hook
	.cfi_endproc
                                        # -- End function
	.globl	level_mouse_hook                # -- Begin function level_mouse_hook
	.p2align	4, 0x90
	.type	level_mouse_hook,@function
level_mouse_hook:                       # @level_mouse_hook
.Lfunc_begin1:
	.loc	2 23 0                          # src/hook/hook_level.c:23:0
	.cfi_startproc
# %bb.0:
	pushq	%rbp
	.cfi_def_cfa_offset 16
	.cfi_offset %rbp, -16
	movq	%rsp, %rbp
	.cfi_def_cfa_register %rbp
	subq	$16, %rsp
	movl	%edi, -4(%rbp)
.Ltmp2:
	.loc	2 24 13 prologue_end            # src/hook/hook_level.c:24:13
	cmpl	$1, -4(%rbp)
.Ltmp3:
	.loc	2 24 6 is_stmt 0                # src/hook/hook_level.c:24:6
	jne	.LBB1_2
# %bb.1:
.Ltmp4:
	.loc	2 25 3 is_stmt 1                # src/hook/hook_level.c:25:3
	movabsq	$.L.str, %rdi
	movb	$0, %al
	callq	printf
.Ltmp5:
.LBB1_2:
	.loc	2 26 13                         # src/hook/hook_level.c:26:13
	cmpl	$2, -4(%rbp)
.Ltmp6:
	.loc	2 26 6 is_stmt 0                # src/hook/hook_level.c:26:6
	jne	.LBB1_4
# %bb.3:
.Ltmp7:
	.loc	2 27 3 is_stmt 1                # src/hook/hook_level.c:27:3
	movabsq	$.L.str.1, %rdi
	movb	$0, %al
	callq	printf
.Ltmp8:
.LBB1_4:
	.loc	2 28 13                         # src/hook/hook_level.c:28:13
	cmpl	$3, -4(%rbp)
.Ltmp9:
	.loc	2 28 6 is_stmt 0                # src/hook/hook_level.c:28:6
	jne	.LBB1_6
# %bb.5:
.Ltmp10:
	.loc	2 29 3 is_stmt 1                # src/hook/hook_level.c:29:3
	movabsq	$.L.str.2, %rdi
	movb	$0, %al
	callq	printf
.Ltmp11:
.LBB1_6:
	.loc	2 30 13                         # src/hook/hook_level.c:30:13
	cmpl	$4, -4(%rbp)
.Ltmp12:
	.loc	2 30 6 is_stmt 0                # src/hook/hook_level.c:30:6
	jne	.LBB1_8
# %bb.7:
.Ltmp13:
	.loc	2 31 3 is_stmt 1                # src/hook/hook_level.c:31:3
	movabsq	$.L.str.3, %rdi
	movb	$0, %al
	callq	printf
.Ltmp14:
.LBB1_8:
	.loc	2 32 13                         # src/hook/hook_level.c:32:13
	cmpl	$5, -4(%rbp)
.Ltmp15:
	.loc	2 32 6 is_stmt 0                # src/hook/hook_level.c:32:6
	jne	.LBB1_10
# %bb.9:
.Ltmp16:
	.loc	2 33 3 is_stmt 1                # src/hook/hook_level.c:33:3
	movabsq	$.L.str.4, %rdi
	movb	$0, %al
	callq	printf
.Ltmp17:
.LBB1_10:
	.loc	2 34 2                          # src/hook/hook_level.c:34:2
	xorl	%eax, %eax
	addq	$16, %rsp
	popq	%rbp
	.cfi_def_cfa %rsp, 8
	retq
.Ltmp18:
.Lfunc_end1:
	.size	level_mouse_hook, .Lfunc_end1-level_mouse_hook
	.cfi_endproc
                                        # -- End function
	.globl	is_player_event                 # -- Begin function is_player_event
	.p2align	4, 0x90
	.type	is_player_event,@function
is_player_event:                        # @is_player_event
.Lfunc_begin2:
	.loc	2 38 0                          # src/hook/hook_level.c:38:0
	.cfi_startproc
# %bb.0:
	pushq	%rbp
	.cfi_def_cfa_offset 16
	.cfi_offset %rbp, -16
	movq	%rsp, %rbp
	.cfi_def_cfa_register %rbp
	movl	%edi, -8(%rbp)
.Ltmp19:
	.loc	2 39 13 prologue_end            # src/hook/hook_level.c:39:13
	cmpl	$119, -8(%rbp)
	.loc	2 39 21 is_stmt 0               # src/hook/hook_level.c:39:21
	je	.LBB2_8
# %bb.1:
	.loc	2 39 31                         # src/hook/hook_level.c:39:31
	cmpl	$87, -8(%rbp)
	.loc	2 40 3 is_stmt 1                # src/hook/hook_level.c:40:3
	je	.LBB2_8
# %bb.2:
	.loc	2 40 13 is_stmt 0               # src/hook/hook_level.c:40:13
	cmpl	$97, -8(%rbp)
	.loc	2 40 21                         # src/hook/hook_level.c:40:21
	je	.LBB2_8
# %bb.3:
	.loc	2 40 31                         # src/hook/hook_level.c:40:31
	cmpl	$65, -8(%rbp)
	.loc	2 41 3 is_stmt 1                # src/hook/hook_level.c:41:3
	je	.LBB2_8
# %bb.4:
	.loc	2 41 13 is_stmt 0               # src/hook/hook_level.c:41:13
	cmpl	$115, -8(%rbp)
	.loc	2 41 21                         # src/hook/hook_level.c:41:21
	je	.LBB2_8
# %bb.5:
	.loc	2 41 31                         # src/hook/hook_level.c:41:31
	cmpl	$83, -8(%rbp)
	.loc	2 42 3 is_stmt 1                # src/hook/hook_level.c:42:3
	je	.LBB2_8
# %bb.6:
	.loc	2 42 13 is_stmt 0               # src/hook/hook_level.c:42:13
	cmpl	$100, -8(%rbp)
	.loc	2 42 21                         # src/hook/hook_level.c:42:21
	je	.LBB2_8
# %bb.7:
	.loc	2 42 31                         # src/hook/hook_level.c:42:31
	cmpl	$68, -8(%rbp)
.Ltmp20:
	.loc	2 39 6 is_stmt 1                # src/hook/hook_level.c:39:6
	jne	.LBB2_9
.LBB2_8:
.Ltmp21:
	.loc	2 43 3                          # src/hook/hook_level.c:43:3
	movb	$1, -1(%rbp)
	jmp	.LBB2_10
.Ltmp22:
.LBB2_9:
	.loc	2 44 2                          # src/hook/hook_level.c:44:2
	movb	$0, -1(%rbp)
.LBB2_10:
	.loc	2 45 1                          # src/hook/hook_level.c:45:1
	movb	-1(%rbp), %al
	andb	$1, %al
	movzbl	%al, %eax
	popq	%rbp
	.cfi_def_cfa %rsp, 8
	retq
.Ltmp23:
.Lfunc_end2:
	.size	is_player_event, .Lfunc_end2-is_player_event
	.cfi_endproc
                                        # -- End function
	.globl	level_key_hook                  # -- Begin function level_key_hook
	.p2align	4, 0x90
	.type	level_key_hook,@function
level_key_hook:                         # @level_key_hook
.Lfunc_begin3:
	.loc	2 48 0                          # src/hook/hook_level.c:48:0
	.cfi_startproc
# %bb.0:
	pushq	%rbp
	.cfi_def_cfa_offset 16
	.cfi_offset %rbp, -16
	movq	%rsp, %rbp
	.cfi_def_cfa_register %rbp
	subq	$16, %rsp
	movl	%edi, -4(%rbp)
	movq	%rsi, -16(%rbp)
.Ltmp24:
	.loc	2 49 13 prologue_end            # src/hook/hook_level.c:49:13
	cmpl	$65307, -4(%rbp)                # imm = 0xFF1B
.Ltmp25:
	.loc	2 49 6 is_stmt 0                # src/hook/hook_level.c:49:6
	jne	.LBB3_2
# %bb.1:
.Ltmp26:
	.loc	2 50 13 is_stmt 1               # src/hook/hook_level.c:50:13
	movq	-16(%rbp), %rdi
	.loc	2 50 3 is_stmt 0                # src/hook/hook_level.c:50:3
	callq	exit_hook
.Ltmp27:
.LBB3_2:
	.loc	2 51 13 is_stmt 1               # src/hook/hook_level.c:51:13
	cmpl	$65293, -4(%rbp)                # imm = 0xFF0D
.Ltmp28:
	.loc	2 51 6 is_stmt 0                # src/hook/hook_level.c:51:6
	jne	.LBB3_4
# %bb.3:
.Ltmp29:
	.loc	2 53 17 is_stmt 1               # src/hook/hook_level.c:53:17
	movq	-16(%rbp), %rdi
	.loc	2 53 3 is_stmt 0                # src/hook/hook_level.c:53:3
	callq	set_menu_loop
	.loc	2 54 3 is_stmt 1                # src/hook/hook_level.c:54:3
	movq	-16(%rbp), %rax
	.loc	2 54 24 is_stmt 0               # src/hook/hook_level.c:54:24
	movb	$0, (%rax)
	.loc	2 55 20 is_stmt 1               # src/hook/hook_level.c:55:20
	movq	-16(%rbp), %rax
	.loc	2 55 27 is_stmt 0               # src/hook/hook_level.c:55:27
	movq	16(%rax), %rdi
	.loc	2 55 36                         # src/hook/hook_level.c:55:36
	movq	-16(%rbp), %rax
	.loc	2 55 43                         # src/hook/hook_level.c:55:43
	movq	8(%rax), %rsi
	.loc	2 55 3                          # src/hook/hook_level.c:55:3
	callq	mlx_clear_window
.Ltmp30:
.LBB3_4:
	.loc	2 57 22 is_stmt 1               # src/hook/hook_level.c:57:22
	movl	-4(%rbp), %edi
	.loc	2 57 6 is_stmt 0                # src/hook/hook_level.c:57:6
	callq	is_player_event
.Ltmp31:
	.loc	2 57 6                          # src/hook/hook_level.c:57:6
	testb	$1, %al
	jne	.LBB3_5
	jmp	.LBB3_6
.LBB3_5:
.Ltmp32:
	.loc	2 58 16 is_stmt 1               # src/hook/hook_level.c:58:16
	movq	-16(%rbp), %rdi
	.loc	2 58 23 is_stmt 0               # src/hook/hook_level.c:58:23
	movq	-16(%rbp), %rax
	.loc	2 58 30                         # src/hook/hook_level.c:58:30
	movq	48(%rax), %rsi
	.loc	2 58 38                         # src/hook/hook_level.c:58:38
	movl	-4(%rbp), %edx
	.loc	2 58 3                          # src/hook/hook_level.c:58:3
	callq	player_event
.Ltmp33:
.LBB3_6:
	.loc	2 59 2 is_stmt 1                # src/hook/hook_level.c:59:2
	xorl	%eax, %eax
	addq	$16, %rsp
	popq	%rbp
	.cfi_def_cfa %rsp, 8
	retq
.Ltmp34:
.Lfunc_end3:
	.size	level_key_hook, .Lfunc_end3-level_key_hook
	.cfi_endproc
                                        # -- End function
	.globl	set_level_loop                  # -- Begin function set_level_loop
	.p2align	4, 0x90
	.type	set_level_loop,@function
set_level_loop:                         # @set_level_loop
.Lfunc_begin4:
	.loc	2 63 0                          # src/hook/hook_level.c:63:0
	.cfi_startproc
# %bb.0:
	pushq	%rbp
	.cfi_def_cfa_offset 16
	.cfi_offset %rbp, -16
	movq	%rsp, %rbp
	.cfi_def_cfa_register %rbp
	subq	$16, %rsp
	movq	%rdi, -8(%rbp)
.Ltmp35:
	.loc	2 64 11 prologue_end            # src/hook/hook_level.c:64:11
	movq	-8(%rbp), %rax
	.loc	2 64 18 is_stmt 0               # src/hook/hook_level.c:64:18
	movq	8(%rax), %rdi
	.loc	2 65 36 is_stmt 1               # src/hook/hook_level.c:65:36
	movq	-8(%rbp), %r8
	.loc	2 64 2                          # src/hook/hook_level.c:64:2
	movl	$17, %esi
	movl	$131072, %edx                   # imm = 0x20000
	movabsq	$exit_hook, %rcx
	callq	mlx_hook
	.loc	2 66 16                         # src/hook/hook_level.c:66:16
	movq	-8(%rbp), %rax
	.loc	2 66 23 is_stmt 0               # src/hook/hook_level.c:66:23
	movq	16(%rax), %rdi
	.loc	2 66 50                         # src/hook/hook_level.c:66:50
	movq	-8(%rbp), %rdx
	.loc	2 66 2                          # src/hook/hook_level.c:66:2
	movabsq	$level_loop_hook, %rsi
	callq	mlx_loop_hook
	.loc	2 67 11 is_stmt 1               # src/hook/hook_level.c:67:11
	movq	-8(%rbp), %rax
	.loc	2 67 18 is_stmt 0               # src/hook/hook_level.c:67:18
	movq	8(%rax), %rdi
	.loc	2 67 68                         # src/hook/hook_level.c:67:68
	movq	-8(%rbp), %r8
	.loc	2 67 2                          # src/hook/hook_level.c:67:2
	movl	$2, %esi
	movl	$1, %edx
	movabsq	$level_key_hook, %rcx
	callq	mlx_hook
	.loc	2 68 17 is_stmt 1               # src/hook/hook_level.c:68:17
	movq	-8(%rbp), %rax
	.loc	2 68 24 is_stmt 0               # src/hook/hook_level.c:68:24
	movq	8(%rax), %rdi
	.loc	2 68 52                         # src/hook/hook_level.c:68:52
	movq	-8(%rbp), %rdx
	.loc	2 68 2                          # src/hook/hook_level.c:68:2
	movabsq	$level_mouse_hook, %rsi
	callq	mlx_mouse_hook
	.loc	2 69 1 is_stmt 1                # src/hook/hook_level.c:69:1
	addq	$16, %rsp
	popq	%rbp
	.cfi_def_cfa %rsp, 8
	retq
.Ltmp36:
.Lfunc_end4:
	.size	set_level_loop, .Lfunc_end4-set_level_loop
	.cfi_endproc
                                        # -- End function
	.type	.L.str,@object                  # @.str
	.section	.rodata.str1.1,"aMS",@progbits,1
.L.str:
	.asciz	"BUTTON 1\n"
	.size	.L.str, 10

	.type	.L.str.1,@object                # @.str.1
.L.str.1:
	.asciz	"BUTTON 2\n"
	.size	.L.str.1, 10

	.type	.L.str.2,@object                # @.str.2
.L.str.2:
	.asciz	"BUTTON 3\n"
	.size	.L.str.2, 10

	.type	.L.str.3,@object                # @.str.3
.L.str.3:
	.asciz	"BUTTON 4\n"
	.size	.L.str.3, 10

	.type	.L.str.4,@object                # @.str.4
.L.str.4:
	.asciz	"BUTTON 5\n"
	.size	.L.str.4, 10

	.file	3 "/usr/include/x86_64-linux-gnu/bits" "types.h"
	.file	4 "/usr/include/x86_64-linux-gnu/bits" "stdint-uintn.h"
	.file	5 "/home/algadea/Dev/42/cube3d/misc/cub3d" "src/hook/../../include/cub3d_player.h"
	.section	".note.GNU-stack","",@progbits
	.addrsig
	.addrsig_sym level_loop_hook
	.addrsig_sym render_level
	.addrsig_sym level_mouse_hook
	.addrsig_sym printf
	.addrsig_sym is_player_event
	.addrsig_sym level_key_hook
	.addrsig_sym exit_hook
	.addrsig_sym set_menu_loop
	.addrsig_sym mlx_clear_window
	.addrsig_sym player_event
	.addrsig_sym mlx_hook
	.addrsig_sym mlx_loop_hook
	.addrsig_sym mlx_mouse_hook