	.text
	.file	"main.c"
	.file	1 "/home/algadea/Dev/42/cube3d/misc/cub3d" "src/../include/cub3d.h"
	.globl	destroy_images                  # -- Begin function destroy_images
	.p2align	4, 0x90
	.type	destroy_images,@function
destroy_images:                         # @destroy_images
.Lfunc_begin0:
	.file	2 "/home/algadea/Dev/42/cube3d/misc/cub3d" "src/main.c"
	.loc	2 16 0                          # src/main.c:16:0
	.cfi_startproc
# %bb.0:
	pushq	%rbp
	.cfi_def_cfa_offset 16
	.cfi_offset %rbp, -16
	movq	%rsp, %rbp
	.cfi_def_cfa_register %rbp
	subq	$16, %rsp
	movq	%rdi, -8(%rbp)
.Ltmp0:
	.loc	2 17 6 prologue_end             # src/main.c:17:6
	movq	-8(%rbp), %rax
	.loc	2 17 13 is_stmt 0               # src/main.c:17:13
	movq	40(%rax), %rax
	.loc	2 17 20                         # src/main.c:17:20
	movq	(%rax), %rax
	.loc	2 17 6                          # src/main.c:17:6
	cmpq	$0, (%rax)
.Ltmp1:
	.loc	2 17 6                          # src/main.c:17:6
	je	.LBB0_2
# %bb.1:
.Ltmp2:
	.loc	2 18 21 is_stmt 1               # src/main.c:18:21
	movq	-8(%rbp), %rax
	.loc	2 18 28 is_stmt 0               # src/main.c:18:28
	movq	16(%rax), %rdi
	.loc	2 18 37                         # src/main.c:18:37
	movq	-8(%rbp), %rax
	.loc	2 18 44                         # src/main.c:18:44
	movq	40(%rax), %rax
	.loc	2 18 51                         # src/main.c:18:51
	movq	(%rax), %rax
	.loc	2 18 56                         # src/main.c:18:56
	movq	(%rax), %rsi
	.loc	2 18 3                          # src/main.c:18:3
	callq	mlx_destroy_image
.Ltmp3:
.LBB0_2:
	.loc	2 19 6 is_stmt 1                # src/main.c:19:6
	movq	-8(%rbp), %rax
	.loc	2 19 13 is_stmt 0               # src/main.c:19:13
	movq	80(%rax), %rax
	.loc	2 19 24                         # src/main.c:19:24
	movq	(%rax), %rax
	.loc	2 19 6                          # src/main.c:19:6
	cmpq	$0, 8(%rax)
.Ltmp4:
	.loc	2 19 6                          # src/main.c:19:6
	je	.LBB0_4
# %bb.3:
.Ltmp5:
	.loc	2 20 21 is_stmt 1               # src/main.c:20:21
	movq	-8(%rbp), %rax
	.loc	2 20 28 is_stmt 0               # src/main.c:20:28
	movq	16(%rax), %rdi
	.loc	2 20 37                         # src/main.c:20:37
	movq	-8(%rbp), %rax
	.loc	2 20 44                         # src/main.c:20:44
	movq	80(%rax), %rax
	.loc	2 20 55                         # src/main.c:20:55
	movq	(%rax), %rax
	.loc	2 20 60                         # src/main.c:20:60
	movq	8(%rax), %rsi
	.loc	2 20 3                          # src/main.c:20:3
	callq	mlx_destroy_image
.Ltmp6:
.LBB0_4:
	.loc	2 21 2 is_stmt 1                # src/main.c:21:2
	movq	-8(%rbp), %rax
	.loc	2 21 9 is_stmt 0                # src/main.c:21:9
	movq	40(%rax), %rax
	.loc	2 21 16                         # src/main.c:21:16
	movq	(%rax), %rax
	.loc	2 21 25                         # src/main.c:21:25
	movq	$0, (%rax)
	.loc	2 22 2 is_stmt 1                # src/main.c:22:2
	movq	-8(%rbp), %rax
	.loc	2 22 9 is_stmt 0                # src/main.c:22:9
	movq	80(%rax), %rax
	.loc	2 22 20                         # src/main.c:22:20
	movq	(%rax), %rax
	.loc	2 22 29                         # src/main.c:22:29
	movq	$0, 8(%rax)
	.loc	2 23 1 is_stmt 1                # src/main.c:23:1
	addq	$16, %rsp
	popq	%rbp
	.cfi_def_cfa %rsp, 8
	retq
.Ltmp7:
.Lfunc_end0:
	.size	destroy_images, .Lfunc_end0-destroy_images
	.cfi_endproc
                                        # -- End function
	.globl	exit_hook                       # -- Begin function exit_hook
	.p2align	4, 0x90
	.type	exit_hook,@function
exit_hook:                              # @exit_hook
.Lfunc_begin1:
	.loc	2 26 0                          # src/main.c:26:0
	.cfi_startproc
# %bb.0:
	pushq	%rbp
	.cfi_def_cfa_offset 16
	.cfi_offset %rbp, -16
	movq	%rsp, %rbp
	.cfi_def_cfa_register %rbp
	subq	$16, %rsp
	movq	%rdi, -8(%rbp)
.Ltmp8:
	.loc	2 27 17 prologue_end            # src/main.c:27:17
	movq	-8(%rbp), %rdi
	.loc	2 27 2 is_stmt 0                # src/main.c:27:2
	callq	destroy_images
	.loc	2 28 21 is_stmt 1               # src/main.c:28:21
	movq	-8(%rbp), %rax
	.loc	2 28 28 is_stmt 0               # src/main.c:28:28
	movq	16(%rax), %rdi
	.loc	2 28 37                         # src/main.c:28:37
	movq	-8(%rbp), %rax
	.loc	2 28 44                         # src/main.c:28:44
	movq	8(%rax), %rsi
	.loc	2 28 2                          # src/main.c:28:2
	callq	mlx_destroy_window
	.loc	2 29 22 is_stmt 1               # src/main.c:29:22
	movq	-8(%rbp), %rax
	.loc	2 29 29 is_stmt 0               # src/main.c:29:29
	movq	16(%rax), %rdi
	.loc	2 29 2                          # src/main.c:29:2
	callq	mlx_destroy_display
	.loc	2 30 7 is_stmt 1                # src/main.c:30:7
	movq	-8(%rbp), %rax
	.loc	2 30 14 is_stmt 0               # src/main.c:30:14
	movq	16(%rax), %rdi
	.loc	2 30 2                          # src/main.c:30:2
	callq	free
	.loc	2 31 2 is_stmt 1                # src/main.c:31:2
	movq	-8(%rbp), %rax
	.loc	2 31 17 is_stmt 0               # src/main.c:31:17
	movq	$0, 16(%rax)
	.loc	2 32 16 is_stmt 1               # src/main.c:32:16
	movq	-8(%rbp), %rdi
	.loc	2 32 2 is_stmt 0                # src/main.c:32:2
	callq	clean_program
	.loc	2 33 2 is_stmt 1                # src/main.c:33:2
	xorl	%edi, %edi
	callq	exit
.Ltmp9:
.Lfunc_end1:
	.size	exit_hook, .Lfunc_end1-exit_hook
	.cfi_endproc
                                        # -- End function
	.globl	start_game_loop                 # -- Begin function start_game_loop
	.p2align	4, 0x90
	.type	start_game_loop,@function
start_game_loop:                        # @start_game_loop
.Lfunc_begin2:
	.loc	2 37 0                          # src/main.c:37:0
	.cfi_startproc
# %bb.0:
	pushq	%rbp
	.cfi_def_cfa_offset 16
	.cfi_offset %rbp, -16
	movq	%rsp, %rbp
	.cfi_def_cfa_register %rbp
	subq	$16, %rsp
	movq	%rdi, -8(%rbp)
.Ltmp10:
	.loc	2 38 11 prologue_end            # src/main.c:38:11
	movq	-8(%rbp), %rax
	.loc	2 38 18 is_stmt 0               # src/main.c:38:18
	movq	16(%rax), %rdi
	.loc	2 38 2                          # src/main.c:38:2
	callq	mlx_loop
	.loc	2 39 1 is_stmt 1                # src/main.c:39:1
	addq	$16, %rsp
	popq	%rbp
	.cfi_def_cfa %rsp, 8
	retq
.Ltmp11:
.Lfunc_end2:
	.size	start_game_loop, .Lfunc_end2-start_game_loop
	.cfi_endproc
                                        # -- End function
	.globl	main                            # -- Begin function main
	.p2align	4, 0x90
	.type	main,@function
main:                                   # @main
.Lfunc_begin3:
	.loc	2 42 0                          # src/main.c:42:0
	.cfi_startproc
# %bb.0:
	pushq	%rbp
	.cfi_def_cfa_offset 16
	.cfi_offset %rbp, -16
	movq	%rsp, %rbp
	.cfi_def_cfa_register %rbp
	subq	$112, %rsp
	movl	$0, -4(%rbp)
	movl	%edi, -8(%rbp)
	movq	%rsi, -16(%rbp)
.Ltmp12:
	.loc	2 45 11 prologue_end            # src/main.c:45:11
	cmpl	$2, -8(%rbp)
.Ltmp13:
	.loc	2 45 6 is_stmt 0                # src/main.c:45:6
	jne	.LBB3_2
# %bb.1:
.Ltmp14:
	.loc	2 47 22 is_stmt 1               # src/main.c:47:22
	movq	-16(%rbp), %rax
	movq	8(%rax), %rsi
	.loc	2 47 3 is_stmt 0                # src/main.c:47:3
	leaq	-104(%rbp), %rdi
	callq	init_cub3d
	.loc	2 48 24 is_stmt 1               # src/main.c:48:24
	movq	-80(%rbp), %rax
	.loc	2 48 29 is_stmt 0               # src/main.c:48:29
	movq	56(%rax), %rdi
	.loc	2 48 3                          # src/main.c:48:3
	callq	print_map_data
	.loc	2 49 3 is_stmt 1                # src/main.c:49:3
	leaq	-104(%rbp), %rdi
	callq	start_game_loop
	.loc	2 50 3                          # src/main.c:50:3
	movl	$0, -4(%rbp)
	jmp	.LBB3_3
.Ltmp15:
.LBB3_2:
	.loc	2 52 2                          # src/main.c:52:2
	leaq	-104(%rbp), %rdi
	movl	$2, %esi
	callq	print_error_then_exit_program
	.loc	2 53 2                          # src/main.c:53:2
	movl	$1, -4(%rbp)
.LBB3_3:
	.loc	2 54 1                          # src/main.c:54:1
	movl	-4(%rbp), %eax
	addq	$112, %rsp
	popq	%rbp
	.cfi_def_cfa %rsp, 8
	retq
.Ltmp16:
.Lfunc_end3:
	.size	main, .Lfunc_end3-main
	.cfi_endproc
                                        # -- End function
	.file	3 "/usr/include/x86_64-linux-gnu/bits" "types.h"
	.file	4 "/usr/include/x86_64-linux-gnu/bits" "stdint-uintn.h"
	.file	5 "/home/algadea/Dev/42/cube3d/misc/cub3d" "src/../include/cub3d_player.h"
	.section	".note.GNU-stack","",@progbits
	.addrsig
	.addrsig_sym destroy_images
	.addrsig_sym mlx_destroy_image
	.addrsig_sym mlx_destroy_window
	.addrsig_sym mlx_destroy_display
	.addrsig_sym free
	.addrsig_sym clean_program
	.addrsig_sym exit
	.addrsig_sym start_game_loop
	.addrsig_sym mlx_loop
	.addrsig_sym init_cub3d
	.addrsig_sym print_map_data
	.addrsig_sym print_error_then_exit_program