	.text
	.file	"print.c"
	.globl	print_map_data                  # -- Begin function print_map_data
	.p2align	4, 0x90
	.type	print_map_data,@function
print_map_data:                         # @print_map_data
.Lfunc_begin0:
	.file	1 "/home/algadea/Dev/42/cube3d/misc/cub3d" "src/print.c"
	.loc	1 16 0                          # src/print.c:16:0
	.cfi_startproc
# %bb.0:
	pushq	%rbp
	.cfi_def_cfa_offset 16
	.cfi_offset %rbp, -16
	movq	%rsp, %rbp
	.cfi_def_cfa_register %rbp
	subq	$16, %rsp
	movq	%rdi, -8(%rbp)
.Ltmp0:
	.loc	1 19 4 prologue_end             # src/print.c:19:4
	movl	$0, -12(%rbp)
	.loc	1 20 2                          # src/print.c:20:2
	movl	$1, %edi
	movabsq	$.L.str, %rsi
	movl	$1, %edx
	callq	write
.LBB0_1:                                # =>This Inner Loop Header: Depth=1
	.loc	1 21 9                          # src/print.c:21:9
	movq	-8(%rbp), %rax
	movslq	-12(%rbp), %rcx
	.loc	1 21 2 is_stmt 0                # src/print.c:21:2
	cmpq	$0, (%rax,%rcx,8)
	je	.LBB0_3
# %bb.2:                                #   in Loop: Header=BB0_1 Depth=1
.Ltmp1:
	.loc	1 23 18 is_stmt 1               # src/print.c:23:18
	movq	-8(%rbp), %rax
	movslq	-12(%rbp), %rcx
	movq	(%rax,%rcx,8), %rsi
	.loc	1 23 3 is_stmt 0                # src/print.c:23:3
	movabsq	$.L.str.1, %rdi
	movb	$0, %al
	callq	printf
	.loc	1 24 4 is_stmt 1                # src/print.c:24:4
	movl	-12(%rbp), %eax
	addl	$1, %eax
	movl	%eax, -12(%rbp)
.Ltmp2:
	.loc	1 21 2                          # src/print.c:21:2
	jmp	.LBB0_1
.LBB0_3:
	.loc	1 26 2                          # src/print.c:26:2
	movl	$1, %edi
	movabsq	$.L.str, %rsi
	movl	$1, %edx
	callq	write
	.loc	1 27 1                          # src/print.c:27:1
	addq	$16, %rsp
	popq	%rbp
	.cfi_def_cfa %rsp, 8
	retq
.Ltmp3:
.Lfunc_end0:
	.size	print_map_data, .Lfunc_end0-print_map_data
	.cfi_endproc
                                        # -- End function
	.globl	print_ceiling_and_floor         # -- Begin function print_ceiling_and_floor
	.p2align	4, 0x90
	.type	print_ceiling_and_floor,@function
print_ceiling_and_floor:                # @print_ceiling_and_floor
.Lfunc_begin1:
	.loc	1 30 0                          # src/print.c:30:0
	.cfi_startproc
# %bb.0:
	pushq	%rbp
	.cfi_def_cfa_offset 16
	.cfi_offset %rbp, -16
	movq	%rsp, %rbp
	.cfi_def_cfa_register %rbp
	subq	$32, %rsp
	movq	%rdi, -8(%rbp)
	movq	%rsi, -16(%rbp)
.Ltmp4:
	.loc	1 33 4 prologue_end             # src/print.c:33:4
	movl	$0, -20(%rbp)
.LBB1_1:                                # =>This Inner Loop Header: Depth=1
	.loc	1 35 11                         # src/print.c:35:11
	cmpl	$3, -20(%rbp)
	.loc	1 35 2 is_stmt 0                # src/print.c:35:2
	jge	.LBB1_3
# %bb.2:                                #   in Loop: Header=BB1_1 Depth=1
.Ltmp5:
	.loc	1 37 19 is_stmt 1               # src/print.c:37:19
	movq	-8(%rbp), %rax
	movslq	-20(%rbp), %rcx
	movzbl	(%rax,%rcx), %esi
	.loc	1 37 3 is_stmt 0                # src/print.c:37:3
	movabsq	$.L.str.2, %rdi
	movb	$0, %al
	callq	ft_printf
	.loc	1 38 4 is_stmt 1                # src/print.c:38:4
	movl	-20(%rbp), %eax
	addl	$1, %eax
	movl	%eax, -20(%rbp)
.Ltmp6:
	.loc	1 35 2                          # src/print.c:35:2
	jmp	.LBB1_1
.LBB1_3:
	.loc	1 40 1                          # src/print.c:40:1
	addq	$32, %rsp
	popq	%rbp
	.cfi_def_cfa %rsp, 8
	retq
.Ltmp7:
.Lfunc_end1:
	.size	print_ceiling_and_floor, .Lfunc_end1-print_ceiling_and_floor
	.cfi_endproc
                                        # -- End function
	.globl	print_file_data                 # -- Begin function print_file_data
	.p2align	4, 0x90
	.type	print_file_data,@function
print_file_data:                        # @print_file_data
.Lfunc_begin2:
	.loc	1 43 0                          # src/print.c:43:0
	.cfi_startproc
# %bb.0:
	pushq	%rbp
	.cfi_def_cfa_offset 16
	.cfi_offset %rbp, -16
	movq	%rsp, %rbp
	.cfi_def_cfa_register %rbp
	subq	$16, %rsp
	movq	%rdi, -8(%rbp)
.Ltmp8:
	.loc	1 50 2 prologue_end             # src/print.c:50:2
	movl	$1, %edi
	movabsq	$.L.str, %rsi
	movl	$1, %edx
	callq	write
	.loc	1 51 26                         # src/print.c:51:26
	movq	-8(%rbp), %rdi
	.loc	1 51 31 is_stmt 0               # src/print.c:51:31
	addq	$48, %rdi
	.loc	1 51 40                         # src/print.c:51:40
	movq	-8(%rbp), %rsi
	.loc	1 51 45                         # src/print.c:51:45
	addq	$51, %rsi
	.loc	1 51 2                          # src/print.c:51:2
	callq	print_ceiling_and_floor
	.loc	1 52 2 is_stmt 1                # src/print.c:52:2
	movl	$1, %edi
	movabsq	$.L.str, %rsi
	movl	$1, %edx
	callq	write
	.loc	1 53 4                          # src/print.c:53:4
	movl	$0, -12(%rbp)
.LBB2_1:                                # =>This Inner Loop Header: Depth=1
	.loc	1 54 9                          # src/print.c:54:9
	movq	-8(%rbp), %rax
	.loc	1 54 14 is_stmt 0               # src/print.c:54:14
	movq	56(%rax), %rax
	.loc	1 54 9                          # src/print.c:54:9
	movslq	-12(%rbp), %rcx
	.loc	1 54 2                          # src/print.c:54:2
	cmpq	$0, (%rax,%rcx,8)
	je	.LBB2_3
# %bb.2:                                #   in Loop: Header=BB2_1 Depth=1
.Ltmp9:
	.loc	1 56 18 is_stmt 1               # src/print.c:56:18
	movq	-8(%rbp), %rax
	.loc	1 56 23 is_stmt 0               # src/print.c:56:23
	movq	56(%rax), %rax
	.loc	1 56 18                         # src/print.c:56:18
	movslq	-12(%rbp), %rcx
	movq	(%rax,%rcx,8), %rsi
	.loc	1 56 3                          # src/print.c:56:3
	movabsq	$.L.str.1, %rdi
	movb	$0, %al
	callq	printf
	.loc	1 57 4 is_stmt 1                # src/print.c:57:4
	movl	-12(%rbp), %eax
	addl	$1, %eax
	movl	%eax, -12(%rbp)
.Ltmp10:
	.loc	1 54 2                          # src/print.c:54:2
	jmp	.LBB2_1
.LBB2_3:
	.loc	1 59 2                          # src/print.c:59:2
	movl	$1, %edi
	movabsq	$.L.str, %rsi
	movl	$1, %edx
	callq	write
	.loc	1 60 1                          # src/print.c:60:1
	addq	$16, %rsp
	popq	%rbp
	.cfi_def_cfa %rsp, 8
	retq
.Ltmp11:
.Lfunc_end2:
	.size	print_file_data, .Lfunc_end2-print_file_data
	.cfi_endproc
                                        # -- End function
	.type	.L.str,@object                  # @.str
	.section	.rodata.str1.1,"aMS",@progbits,1
.L.str:
	.asciz	"\n"
	.size	.L.str, 2

	.type	.L.str.1,@object                # @.str.1
.L.str.1:
	.asciz	"%s\n"
	.size	.L.str.1, 4

	.type	.L.str.2,@object                # @.str.2
.L.str.2:
	.asciz	"%d"
	.size	.L.str.2, 3

	.file	2 "/usr/include/x86_64-linux-gnu/bits" "types.h"
	.file	3 "/usr/include/x86_64-linux-gnu/bits" "stdint-uintn.h"
	.file	4 "/home/algadea/Dev/42/cube3d/misc/cub3d" "src/../include/cub3d.h"
	.section	".note.GNU-stack","",@progbits
	.addrsig
	.addrsig_sym write
	.addrsig_sym printf
	.addrsig_sym print_ceiling_and_floor
	.addrsig_sym ft_printf