	.text
	.file	"error.c"
	.file	1 "/home/algadea/Dev/42/cube3d/misc/cub3d" "src/error/../../include/cub3d.h"
	.globl	print_error                     # -- Begin function print_error
	.p2align	4, 0x90
	.type	print_error,@function
print_error:                            # @print_error
.Lfunc_begin0:
	.file	2 "/home/algadea/Dev/42/cube3d/misc/cub3d" "src/error/error.c"
	.loc	2 16 0                          # src/error/error.c:16:0
	.cfi_startproc
# %bb.0:
	pushq	%rbp
	.cfi_def_cfa_offset 16
	.cfi_offset %rbp, -16
	movq	%rsp, %rbp
	.cfi_def_cfa_register %rbp
	subq	$16, %rsp
	movl	%edi, -4(%rbp)
.Ltmp0:
	.loc	2 17 13 prologue_end            # src/error/error.c:17:13
	cmpl	$0, -4(%rbp)
.Ltmp1:
	.loc	2 17 6 is_stmt 0                # src/error/error.c:17:6
	jne	.LBB0_2
# %bb.1:
.Ltmp2:
	.loc	2 18 3 is_stmt 1                # src/error/error.c:18:3
	movl	$2, %edi
	movabsq	$.L.str, %rsi
	movl	$14, %edx
	callq	write
	jmp	.LBB0_29
.LBB0_2:
.Ltmp3:
	.loc	2 19 18                         # src/error/error.c:19:18
	cmpl	$1, -4(%rbp)
.Ltmp4:
	.loc	2 19 11 is_stmt 0               # src/error/error.c:19:11
	jne	.LBB0_4
# %bb.3:
.Ltmp5:
	.loc	2 20 3 is_stmt 1                # src/error/error.c:20:3
	movl	$2, %edi
	movabsq	$.L.str.1, %rsi
	movl	$14, %edx
	callq	write
	jmp	.LBB0_28
.LBB0_4:
.Ltmp6:
	.loc	2 21 18                         # src/error/error.c:21:18
	cmpl	$2, -4(%rbp)
.Ltmp7:
	.loc	2 21 11 is_stmt 0               # src/error/error.c:21:11
	jne	.LBB0_6
# %bb.5:
.Ltmp8:
	.loc	2 22 3 is_stmt 1                # src/error/error.c:22:3
	movl	$2, %edi
	movabsq	$.L.str.2, %rsi
	movl	$26, %edx
	callq	write
	jmp	.LBB0_27
.LBB0_6:
.Ltmp9:
	.loc	2 23 18                         # src/error/error.c:23:18
	cmpl	$4, -4(%rbp)
.Ltmp10:
	.loc	2 23 11 is_stmt 0               # src/error/error.c:23:11
	jne	.LBB0_8
# %bb.7:
.Ltmp11:
	.loc	2 24 3 is_stmt 1                # src/error/error.c:24:3
	movl	$2, %edi
	movabsq	$.L.str.3, %rsi
	movl	$15, %edx
	callq	write
	jmp	.LBB0_26
.LBB0_8:
.Ltmp12:
	.loc	2 25 18                         # src/error/error.c:25:18
	cmpl	$6, -4(%rbp)
.Ltmp13:
	.loc	2 25 11 is_stmt 0               # src/error/error.c:25:11
	jne	.LBB0_10
# %bb.9:
.Ltmp14:
	.loc	2 26 3 is_stmt 1                # src/error/error.c:26:3
	movl	$2, %edi
	movabsq	$.L.str.4, %rsi
	movl	$16, %edx
	callq	write
	jmp	.LBB0_25
.LBB0_10:
.Ltmp15:
	.loc	2 27 18                         # src/error/error.c:27:18
	cmpl	$9, -4(%rbp)
.Ltmp16:
	.loc	2 27 11 is_stmt 0               # src/error/error.c:27:11
	jne	.LBB0_12
# %bb.11:
.Ltmp17:
	.loc	2 28 3 is_stmt 1                # src/error/error.c:28:3
	movl	$2, %edi
	movabsq	$.L.str.5, %rsi
	movl	$13, %edx
	callq	write
	jmp	.LBB0_24
.LBB0_12:
.Ltmp18:
	.loc	2 29 18                         # src/error/error.c:29:18
	cmpl	$5, -4(%rbp)
.Ltmp19:
	.loc	2 29 11 is_stmt 0               # src/error/error.c:29:11
	jne	.LBB0_14
# %bb.13:
.Ltmp20:
	.loc	2 30 3 is_stmt 1                # src/error/error.c:30:3
	movl	$2, %edi
	movabsq	$.L.str.6, %rsi
	movl	$9, %edx
	callq	write
	jmp	.LBB0_23
.LBB0_14:
.Ltmp21:
	.loc	2 31 18                         # src/error/error.c:31:18
	cmpl	$10, -4(%rbp)
.Ltmp22:
	.loc	2 31 11 is_stmt 0               # src/error/error.c:31:11
	jne	.LBB0_16
# %bb.15:
.Ltmp23:
	.loc	2 32 3 is_stmt 1                # src/error/error.c:32:3
	movl	$2, %edi
	movabsq	$.L.str.7, %rsi
	movl	$15, %edx
	callq	write
	jmp	.LBB0_22
.LBB0_16:
.Ltmp24:
	.loc	2 33 18                         # src/error/error.c:33:18
	cmpl	$3, -4(%rbp)
.Ltmp25:
	.loc	2 33 11 is_stmt 0               # src/error/error.c:33:11
	jne	.LBB0_18
# %bb.17:
.Ltmp26:
	.loc	2 34 3 is_stmt 1                # src/error/error.c:34:3
	movl	$2, %edi
	movabsq	$.L.str.8, %rsi
	movl	$15, %edx
	callq	write
	jmp	.LBB0_21
.LBB0_18:
.Ltmp27:
	.loc	2 35 18                         # src/error/error.c:35:18
	cmpl	$11, -4(%rbp)
.Ltmp28:
	.loc	2 35 11 is_stmt 0               # src/error/error.c:35:11
	jne	.LBB0_20
# %bb.19:
.Ltmp29:
	.loc	2 36 3 is_stmt 1                # src/error/error.c:36:3
	movl	$2, %edi
	movabsq	$.L.str.9, %rsi
	movl	$17, %edx
	callq	write
.Ltmp30:
.LBB0_20:
	.loc	2 0 3 is_stmt 0                 # src/error/error.c:0:3
	jmp	.LBB0_21
.LBB0_21:
	jmp	.LBB0_22
.LBB0_22:
	jmp	.LBB0_23
.LBB0_23:
	jmp	.LBB0_24
.LBB0_24:
	jmp	.LBB0_25
.LBB0_25:
	jmp	.LBB0_26
.LBB0_26:
	jmp	.LBB0_27
.LBB0_27:
	jmp	.LBB0_28
.LBB0_28:
	jmp	.LBB0_29
.LBB0_29:
	.loc	2 37 1 is_stmt 1                # src/error/error.c:37:1
	addq	$16, %rsp
	popq	%rbp
	.cfi_def_cfa %rsp, 8
	retq
.Ltmp31:
.Lfunc_end0:
	.size	print_error, .Lfunc_end0-print_error
	.cfi_endproc
                                        # -- End function
	.globl	print_error_then_exit_program   # -- Begin function print_error_then_exit_program
	.p2align	4, 0x90
	.type	print_error_then_exit_program,@function
print_error_then_exit_program:          # @print_error_then_exit_program
.Lfunc_begin1:
	.loc	2 40 0                          # src/error/error.c:40:0
	.cfi_startproc
# %bb.0:
	pushq	%rbp
	.cfi_def_cfa_offset 16
	.cfi_offset %rbp, -16
	movq	%rsp, %rbp
	.cfi_def_cfa_register %rbp
	subq	$16, %rsp
	movq	%rdi, -8(%rbp)
	movl	%esi, -12(%rbp)
.Ltmp32:
	.loc	2 41 14 prologue_end            # src/error/error.c:41:14
	movl	-12(%rbp), %edi
	.loc	2 41 2 is_stmt 0                # src/error/error.c:41:2
	callq	print_error
.Ltmp33:
	.loc	2 42 13 is_stmt 1               # src/error/error.c:42:13
	cmpl	$2, -12(%rbp)
.Ltmp34:
	.loc	2 42 6 is_stmt 0                # src/error/error.c:42:6
	je	.LBB1_2
# %bb.1:
.Ltmp35:
	.loc	2 43 17 is_stmt 1               # src/error/error.c:43:17
	movq	-8(%rbp), %rdi
	.loc	2 43 3 is_stmt 0                # src/error/error.c:43:3
	callq	clean_program
.Ltmp36:
.LBB1_2:
	.loc	2 44 10 is_stmt 1               # src/error/error.c:44:10
	movl	-12(%rbp), %eax
	movl	%eax, -16(%rbp)                 # 4-byte Spill
	.loc	2 44 2 is_stmt 0                # src/error/error.c:44:2
	callq	__errno_location
	movl	-16(%rbp), %ecx                 # 4-byte Reload
	.loc	2 44 8                          # src/error/error.c:44:8
	movl	%ecx, (%rax)
	.loc	2 45 2 is_stmt 1                # src/error/error.c:45:2
	movl	$1, %edi
	callq	exit
.Ltmp37:
.Lfunc_end1:
	.size	print_error_then_exit_program, .Lfunc_end1-print_error_then_exit_program
	.cfi_endproc
                                        # -- End function
	.type	.L.str,@object                  # @.str
	.section	.rodata.str1.1,"aMS",@progbits,1
.L.str:
	.asciz	"ERROR MLX PTR\n"
	.size	.L.str, 15

	.type	.L.str.1,@object                # @.str.1
.L.str.1:
	.asciz	"ERROR WIN PTR\n"
	.size	.L.str.1, 15

	.type	.L.str.2,@object                # @.str.2
.L.str.2:
	.asciz	"\033[31mERROR ARG NUMBER\n\033[0m"
	.size	.L.str.2, 27

	.type	.L.str.3,@object                # @.str.3
.L.str.3:
	.asciz	"ERROR FILENAME\n"
	.size	.L.str.3, 16

	.type	.L.str.4,@object                # @.str.4
.L.str.4:
	.asciz	"ERROR OPEN FILE\n"
	.size	.L.str.4, 17

	.type	.L.str.5,@object                # @.str.5
.L.str.5:
	.asciz	"ERROR MALLOC\n"
	.size	.L.str.5, 14

	.type	.L.str.6,@object                # @.str.6
.L.str.6:
	.asciz	"ERROR ID\n"
	.size	.L.str.6, 10

	.type	.L.str.7,@object                # @.str.7
.L.str.7:
	.asciz	"ERROR MAP DATA\n"
	.size	.L.str.7, 16

	.type	.L.str.8,@object                # @.str.8
.L.str.8:
	.asciz	"ERROR XPM FILE\n"
	.size	.L.str.8, 16

	.type	.L.str.9,@object                # @.str.9
.L.str.9:
	.asciz	"ERROR MAP FORMAT\n"
	.size	.L.str.9, 18

	.file	3 "/usr/include/x86_64-linux-gnu/bits" "types.h"
	.file	4 "/usr/include/x86_64-linux-gnu/bits" "stdint-uintn.h"
	.file	5 "/home/algadea/Dev/42/cube3d/misc/cub3d" "src/error/../../include/cub3d_player.h"
	.section	".note.GNU-stack","",@progbits
	.addrsig
	.addrsig_sym print_error
	.addrsig_sym write
	.addrsig_sym clean_program
	.addrsig_sym __errno_location
	.addrsig_sym exit