	.text
	.file	"parsing_ceiling.c"
	.file	1 "/home/algadea/Dev/42/cube3d/misc/cub3d" "src/parsing/../../include/cub3d.h"
	.globl	is_valid_ceiling                # -- Begin function is_valid_ceiling
	.p2align	4, 0x90
	.type	is_valid_ceiling,@function
is_valid_ceiling:                       # @is_valid_ceiling
.Lfunc_begin0:
	.file	2 "/home/algadea/Dev/42/cube3d/misc/cub3d" "src/parsing/parsing_ceiling.c"
	.loc	2 16 0                          # src/parsing/parsing_ceiling.c:16:0
	.cfi_startproc
# %bb.0:
	pushq	%rbp
	.cfi_def_cfa_offset 16
	.cfi_offset %rbp, -16
	movq	%rsp, %rbp
	.cfi_def_cfa_register %rbp
	movq	%rdi, -16(%rbp)
.Ltmp0:
	.loc	2 17 7 prologue_end             # src/parsing/parsing_ceiling.c:17:7
	movq	-16(%rbp), %rax
	.loc	2 17 6 is_stmt 0                # src/parsing/parsing_ceiling.c:17:6
	movsbl	(%rax), %eax
	.loc	2 17 15                         # src/parsing/parsing_ceiling.c:17:15
	cmpl	$67, %eax
.Ltmp1:
	.loc	2 17 6                          # src/parsing/parsing_ceiling.c:17:6
	jne	.LBB0_2
# %bb.1:
.Ltmp2:
	.loc	2 18 3 is_stmt 1                # src/parsing/parsing_ceiling.c:18:3
	movb	$1, -1(%rbp)
	jmp	.LBB0_3
.Ltmp3:
.LBB0_2:
	.loc	2 19 2                          # src/parsing/parsing_ceiling.c:19:2
	movb	$0, -1(%rbp)
.LBB0_3:
	.loc	2 20 1                          # src/parsing/parsing_ceiling.c:20:1
	movb	-1(%rbp), %al
	andb	$1, %al
	movzbl	%al, %eax
	popq	%rbp
	.cfi_def_cfa %rsp, 8
	retq
.Ltmp4:
.Lfunc_end0:
	.size	is_valid_ceiling, .Lfunc_end0-is_valid_ceiling
	.cfi_endproc
                                        # -- End function
	.globl	extract_ceiling_data            # -- Begin function extract_ceiling_data
	.p2align	4, 0x90
	.type	extract_ceiling_data,@function
extract_ceiling_data:                   # @extract_ceiling_data
.Lfunc_begin1:
	.loc	2 23 0                          # src/parsing/parsing_ceiling.c:23:0
	.cfi_startproc
# %bb.0:
	pushq	%rbp
	.cfi_def_cfa_offset 16
	.cfi_offset %rbp, -16
	movq	%rsp, %rbp
	.cfi_def_cfa_register %rbp
	subq	$48, %rsp
	movq	%rdi, -8(%rbp)
	movq	%rsi, -16(%rbp)
.Ltmp5:
	.loc	2 28 4 prologue_end             # src/parsing/parsing_ceiling.c:28:4
	movl	$0, -20(%rbp)
	.loc	2 29 4                          # src/parsing/parsing_ceiling.c:29:4
	movl	$0, -24(%rbp)
.LBB1_1:                                # =>This Inner Loop Header: Depth=1
	.loc	2 30 9                          # src/parsing/parsing_ceiling.c:30:9
	movq	-16(%rbp), %rax
	movslq	-20(%rbp), %rcx
	movsbl	(%rax,%rcx), %ecx
	xorl	%eax, %eax
                                        # kill: def $al killed $al killed $eax
	cmpl	$0, %ecx
	movb	%al, -33(%rbp)                  # 1-byte Spill
	.loc	2 30 17 is_stmt 0               # src/parsing/parsing_ceiling.c:30:17
	je	.LBB1_3
# %bb.2:                                #   in Loop: Header=BB1_1 Depth=1
	.loc	2 30 22                         # src/parsing/parsing_ceiling.c:30:22
	cmpl	$3, -24(%rbp)
	setl	%al
	movb	%al, -33(%rbp)                  # 1-byte Spill
.LBB1_3:                                #   in Loop: Header=BB1_1 Depth=1
	.loc	2 0 22                          # src/parsing/parsing_ceiling.c:0:22
	movb	-33(%rbp), %al                  # 1-byte Reload
	.loc	2 30 2                          # src/parsing/parsing_ceiling.c:30:2
	testb	$1, %al
	jne	.LBB1_4
	jmp	.LBB1_7
.LBB1_4:                                #   in Loop: Header=BB1_1 Depth=1
.Ltmp6:
	.loc	2 32 23 is_stmt 1               # src/parsing/parsing_ceiling.c:32:23
	movq	-16(%rbp), %rdi
	.loc	2 32 9 is_stmt 0                # src/parsing/parsing_ceiling.c:32:9
	callq	get_rgb_value
	.loc	2 32 7                          # src/parsing/parsing_ceiling.c:32:7
	movq	%rax, -32(%rbp)
.Ltmp7:
	.loc	2 33 8 is_stmt 1                # src/parsing/parsing_ceiling.c:33:8
	cmpq	$0, -32(%rbp)
.Ltmp8:
	.loc	2 33 7 is_stmt 0                # src/parsing/parsing_ceiling.c:33:7
	jne	.LBB1_6
# %bb.5:                                #   in Loop: Header=BB1_1 Depth=1
.Ltmp9:
	.loc	2 34 34 is_stmt 1               # src/parsing/parsing_ceiling.c:34:34
	movq	-8(%rbp), %rdi
	.loc	2 34 4 is_stmt 0                # src/parsing/parsing_ceiling.c:34:4
	movl	$8, %esi
	callq	print_error_then_exit_program
.Ltmp10:
.LBB1_6:                                #   in Loop: Header=BB1_1 Depth=1
	.loc	2 35 36 is_stmt 1               # src/parsing/parsing_ceiling.c:35:36
	movq	-32(%rbp), %rdi
	.loc	2 35 28 is_stmt 0               # src/parsing/parsing_ceiling.c:35:28
	callq	ft_atoi
	movb	%al, %dl
	.loc	2 35 3                          # src/parsing/parsing_ceiling.c:35:3
	movq	-8(%rbp), %rax
	.loc	2 35 10                         # src/parsing/parsing_ceiling.c:35:10
	movq	24(%rax), %rax
	.loc	2 35 3                          # src/parsing/parsing_ceiling.c:35:3
	movslq	-24(%rbp), %rcx
	.loc	2 35 26                         # src/parsing/parsing_ceiling.c:35:26
	movb	%dl, 48(%rax,%rcx)
	.loc	2 36 18 is_stmt 1               # src/parsing/parsing_ceiling.c:36:18
	movq	-32(%rbp), %rdi
	.loc	2 36 8 is_stmt 0                # src/parsing/parsing_ceiling.c:36:8
	callq	ft_strlen
	movq	%rax, %rcx
	.loc	2 36 5                          # src/parsing/parsing_ceiling.c:36:5
	movslq	-20(%rbp), %rax
	addq	%rcx, %rax
                                        # kill: def $eax killed $eax killed $rax
	movl	%eax, -20(%rbp)
	.loc	2 37 4 is_stmt 1                # src/parsing/parsing_ceiling.c:37:4
	movl	-24(%rbp), %eax
	addl	$1, %eax
	movl	%eax, -24(%rbp)
	.loc	2 38 8                          # src/parsing/parsing_ceiling.c:38:8
	movq	-32(%rbp), %rdi
	.loc	2 38 3 is_stmt 0                # src/parsing/parsing_ceiling.c:38:3
	callq	free
.Ltmp11:
	.loc	2 30 2 is_stmt 1                # src/parsing/parsing_ceiling.c:30:2
	jmp	.LBB1_1
.LBB1_7:
	.loc	2 40 29                         # src/parsing/parsing_ceiling.c:40:29
	movq	-8(%rbp), %rax
	.loc	2 40 36 is_stmt 0               # src/parsing/parsing_ceiling.c:40:36
	movq	32(%rax), %rsi
	.loc	2 40 42                         # src/parsing/parsing_ceiling.c:40:42
	addq	$4, %rsi
	.loc	2 40 2                          # src/parsing/parsing_ceiling.c:40:2
	movl	$5, %edi
	callq	set_mask_element
	.loc	2 41 1 is_stmt 1                # src/parsing/parsing_ceiling.c:41:1
	addq	$48, %rsp
	popq	%rbp
	.cfi_def_cfa %rsp, 8
	retq
.Ltmp12:
.Lfunc_end1:
	.size	extract_ceiling_data, .Lfunc_end1-extract_ceiling_data
	.cfi_endproc
                                        # -- End function
	.file	3 "/usr/include/x86_64-linux-gnu/bits" "types.h"
	.file	4 "/usr/include/x86_64-linux-gnu/bits" "stdint-uintn.h"
	.file	5 "/home/algadea/Dev/42/cube3d/misc/cub3d" "src/parsing/../../include/cub3d_player.h"
	.section	".note.GNU-stack","",@progbits
	.addrsig
	.addrsig_sym get_rgb_value
	.addrsig_sym print_error_then_exit_program
	.addrsig_sym ft_atoi
	.addrsig_sym ft_strlen
	.addrsig_sym free
	.addrsig_sym set_mask_element