	.text
	.file	"parsing_file.c"
	.file	1 "/home/algadea/Dev/42/cube3d/misc/cub3d" "src/parsing/../../include/cub3d.h"
	.globl	open_file                       # -- Begin function open_file
	.p2align	4, 0x90
	.type	open_file,@function
open_file:                              # @open_file
.Lfunc_begin0:
	.file	2 "/home/algadea/Dev/42/cube3d/misc/cub3d" "src/parsing/parsing_file.c"
	.loc	2 16 0                          # src/parsing/parsing_file.c:16:0
	.cfi_startproc
# %bb.0:
	pushq	%rbp
	.cfi_def_cfa_offset 16
	.cfi_offset %rbp, -16
	movq	%rsp, %rbp
	.cfi_def_cfa_register %rbp
	subq	$16, %rsp
	movq	%rdi, -8(%rbp)
	movq	%rsi, -16(%rbp)
.Ltmp0:
	.loc	2 17 25 prologue_end            # src/parsing/parsing_file.c:17:25
	movq	-16(%rbp), %rdi
	.loc	2 17 20 is_stmt 0               # src/parsing/parsing_file.c:17:20
	xorl	%esi, %esi
	movb	$0, %al
	callq	open
	movl	%eax, %ecx
	.loc	2 17 2                          # src/parsing/parsing_file.c:17:2
	movq	-8(%rbp), %rax
	.loc	2 17 9                          # src/parsing/parsing_file.c:17:9
	movq	32(%rax), %rax
	.loc	2 17 18                         # src/parsing/parsing_file.c:17:18
	movl	%ecx, (%rax)
.Ltmp1:
	.loc	2 18 6 is_stmt 1                # src/parsing/parsing_file.c:18:6
	movq	-8(%rbp), %rax
	.loc	2 18 13 is_stmt 0               # src/parsing/parsing_file.c:18:13
	movq	32(%rax), %rax
	.loc	2 18 22                         # src/parsing/parsing_file.c:18:22
	cmpl	$-1, (%rax)
.Ltmp2:
	.loc	2 18 6                          # src/parsing/parsing_file.c:18:6
	jne	.LBB0_2
# %bb.1:
.Ltmp3:
	.loc	2 20 33 is_stmt 1               # src/parsing/parsing_file.c:20:33
	movq	-8(%rbp), %rdi
	.loc	2 20 3 is_stmt 0                # src/parsing/parsing_file.c:20:3
	movl	$6, %esi
	callq	print_error_then_exit_program
	.loc	2 21 17 is_stmt 1               # src/parsing/parsing_file.c:21:17
	movq	-8(%rbp), %rdi
	.loc	2 21 3 is_stmt 0                # src/parsing/parsing_file.c:21:3
	callq	clean_program
	.loc	2 22 3 is_stmt 1                # src/parsing/parsing_file.c:22:3
	movl	$1, %edi
	callq	exit
.Ltmp4:
.LBB0_2:
	.loc	2 24 1                          # src/parsing/parsing_file.c:24:1
	addq	$16, %rsp
	popq	%rbp
	.cfi_def_cfa %rsp, 8
	retq
.Ltmp5:
.Lfunc_end0:
	.size	open_file, .Lfunc_end0-open_file
	.cfi_endproc
                                        # -- End function
	.globl	get_file_length                 # -- Begin function get_file_length
	.p2align	4, 0x90
	.type	get_file_length,@function
get_file_length:                        # @get_file_length
.Lfunc_begin1:
	.loc	2 27 0                          # src/parsing/parsing_file.c:27:0
	.cfi_startproc
# %bb.0:
	pushq	%rbp
	.cfi_def_cfa_offset 16
	.cfi_offset %rbp, -16
	movq	%rsp, %rbp
	.cfi_def_cfa_register %rbp
	subq	$32, %rsp
	movq	%rdi, -8(%rbp)
	movq	%rsi, -16(%rbp)
.Ltmp6:
	.loc	2 31 4 prologue_end             # src/parsing/parsing_file.c:31:4
	movl	$0, -20(%rbp)
	.loc	2 32 12                         # src/parsing/parsing_file.c:32:12
	movq	-8(%rbp), %rdi
	.loc	2 32 19 is_stmt 0               # src/parsing/parsing_file.c:32:19
	movq	-16(%rbp), %rsi
	.loc	2 32 2                          # src/parsing/parsing_file.c:32:2
	callq	open_file
.LBB1_1:                                # =>This Inner Loop Header: Depth=1
.Ltmp7:
	.loc	2 35 24 is_stmt 1               # src/parsing/parsing_file.c:35:24
	movq	-8(%rbp), %rax
	.loc	2 35 31 is_stmt 0               # src/parsing/parsing_file.c:35:31
	movq	32(%rax), %rax
	.loc	2 35 37                         # src/parsing/parsing_file.c:35:37
	movl	(%rax), %edi
	.loc	2 35 10                         # src/parsing/parsing_file.c:35:10
	callq	get_next_line
	.loc	2 35 8                          # src/parsing/parsing_file.c:35:8
	movq	%rax, -32(%rbp)
.Ltmp8:
	.loc	2 36 8 is_stmt 1                # src/parsing/parsing_file.c:36:8
	cmpq	$0, -32(%rbp)
.Ltmp9:
	.loc	2 36 7 is_stmt 0                # src/parsing/parsing_file.c:36:7
	jne	.LBB1_3
# %bb.2:
.Ltmp10:
	.loc	2 37 4 is_stmt 1                # src/parsing/parsing_file.c:37:4
	jmp	.LBB1_4
.Ltmp11:
.LBB1_3:                                #   in Loop: Header=BB1_1 Depth=1
	.loc	2 38 8                          # src/parsing/parsing_file.c:38:8
	movq	-32(%rbp), %rdi
	.loc	2 38 3 is_stmt 0                # src/parsing/parsing_file.c:38:3
	callq	free
	.loc	2 39 4 is_stmt 1                # src/parsing/parsing_file.c:39:4
	movl	-20(%rbp), %eax
	addl	$1, %eax
	movl	%eax, -20(%rbp)
.Ltmp12:
	.loc	2 33 2                          # src/parsing/parsing_file.c:33:2
	jmp	.LBB1_1
.LBB1_4:
	.loc	2 41 8                          # src/parsing/parsing_file.c:41:8
	movq	-8(%rbp), %rax
	.loc	2 41 15 is_stmt 0               # src/parsing/parsing_file.c:41:15
	movq	32(%rax), %rax
	.loc	2 41 21                         # src/parsing/parsing_file.c:41:21
	movl	(%rax), %edi
	.loc	2 41 2                          # src/parsing/parsing_file.c:41:2
	callq	close
	.loc	2 42 10 is_stmt 1               # src/parsing/parsing_file.c:42:10
	movl	-20(%rbp), %eax
	.loc	2 42 2 is_stmt 0                # src/parsing/parsing_file.c:42:2
	addq	$32, %rsp
	popq	%rbp
	.cfi_def_cfa %rsp, 8
	retq
.Ltmp13:
.Lfunc_end1:
	.size	get_file_length, .Lfunc_end1-get_file_length
	.cfi_endproc
                                        # -- End function
	.globl	extract_file                    # -- Begin function extract_file
	.p2align	4, 0x90
	.type	extract_file,@function
extract_file:                           # @extract_file
.Lfunc_begin2:
	.loc	2 46 0 is_stmt 1                # src/parsing/parsing_file.c:46:0
	.cfi_startproc
# %bb.0:
	pushq	%rbp
	.cfi_def_cfa_offset 16
	.cfi_offset %rbp, -16
	movq	%rsp, %rbp
	.cfi_def_cfa_register %rbp
	subq	$64, %rsp
	movq	%rdi, -8(%rbp)
	movq	%rsi, -16(%rbp)
.Ltmp14:
	.loc	2 51 27 prologue_end            # src/parsing/parsing_file.c:51:27
	movq	-8(%rbp), %rdi
	.loc	2 51 34 is_stmt 0               # src/parsing/parsing_file.c:51:34
	movq	-16(%rbp), %rsi
	.loc	2 51 11                         # src/parsing/parsing_file.c:51:11
	callq	get_file_length
	.loc	2 51 9                          # src/parsing/parsing_file.c:51:9
	movl	%eax, -36(%rbp)
	.loc	2 52 47 is_stmt 1               # src/parsing/parsing_file.c:52:47
	movl	-36(%rbp), %eax
	.loc	2 52 54 is_stmt 0               # src/parsing/parsing_file.c:52:54
	addl	$1, %eax
	.loc	2 52 46                         # src/parsing/parsing_file.c:52:46
	movslq	%eax, %rdi
	.loc	2 52 44                         # src/parsing/parsing_file.c:52:44
	shlq	$3, %rdi
	.loc	2 52 22                         # src/parsing/parsing_file.c:52:22
	callq	malloc
	movq	%rax, %rcx
	.loc	2 52 2                          # src/parsing/parsing_file.c:52:2
	movq	-8(%rbp), %rax
	.loc	2 52 9                          # src/parsing/parsing_file.c:52:9
	movq	32(%rax), %rax
	.loc	2 52 20                         # src/parsing/parsing_file.c:52:20
	movq	%rcx, 48(%rax)
.Ltmp15:
	.loc	2 53 7 is_stmt 1                # src/parsing/parsing_file.c:53:7
	movq	-8(%rbp), %rax
	.loc	2 53 14 is_stmt 0               # src/parsing/parsing_file.c:53:14
	movq	32(%rax), %rax
	.loc	2 53 7                          # src/parsing/parsing_file.c:53:7
	cmpq	$0, 48(%rax)
.Ltmp16:
	.loc	2 53 6                          # src/parsing/parsing_file.c:53:6
	jne	.LBB2_2
# %bb.1:
.Ltmp17:
	.loc	2 54 33 is_stmt 1               # src/parsing/parsing_file.c:54:33
	movq	-8(%rbp), %rdi
	.loc	2 54 3 is_stmt 0                # src/parsing/parsing_file.c:54:3
	movl	$9, %esi
	callq	print_error_then_exit_program
.Ltmp18:
.LBB2_2:
	.loc	2 55 4 is_stmt 1                # src/parsing/parsing_file.c:55:4
	movl	$0, -20(%rbp)
	.loc	2 56 12                         # src/parsing/parsing_file.c:56:12
	movq	-8(%rbp), %rdi
	.loc	2 56 19 is_stmt 0               # src/parsing/parsing_file.c:56:19
	movq	-16(%rbp), %rsi
	.loc	2 56 2                          # src/parsing/parsing_file.c:56:2
	callq	open_file
.LBB2_3:                                # =>This Inner Loop Header: Depth=1
.Ltmp19:
	.loc	2 59 24 is_stmt 1               # src/parsing/parsing_file.c:59:24
	movq	-8(%rbp), %rax
	.loc	2 59 31 is_stmt 0               # src/parsing/parsing_file.c:59:31
	movq	32(%rax), %rax
	.loc	2 59 37                         # src/parsing/parsing_file.c:59:37
	movl	(%rax), %edi
	.loc	2 59 10                         # src/parsing/parsing_file.c:59:10
	callq	get_next_line
	.loc	2 59 8                          # src/parsing/parsing_file.c:59:8
	movq	%rax, -32(%rbp)
.Ltmp20:
	.loc	2 60 12 is_stmt 1               # src/parsing/parsing_file.c:60:12
	cmpq	$0, -32(%rbp)
.Ltmp21:
	.loc	2 60 7 is_stmt 0                # src/parsing/parsing_file.c:60:7
	jne	.LBB2_5
# %bb.4:
.Ltmp22:
	.loc	2 61 4 is_stmt 1                # src/parsing/parsing_file.c:61:4
	jmp	.LBB2_9
.Ltmp23:
.LBB2_5:                                #   in Loop: Header=BB2_3 Depth=1
	.loc	2 62 7                          # src/parsing/parsing_file.c:62:7
	movl	-20(%rbp), %eax
	.loc	2 62 12 is_stmt 0               # src/parsing/parsing_file.c:62:12
	movl	-36(%rbp), %ecx
	.loc	2 62 19                         # src/parsing/parsing_file.c:62:19
	subl	$1, %ecx
	.loc	2 62 9                          # src/parsing/parsing_file.c:62:9
	cmpl	%ecx, %eax
.Ltmp24:
	.loc	2 62 7                          # src/parsing/parsing_file.c:62:7
	jne	.LBB2_7
# %bb.6:                                #   in Loop: Header=BB2_3 Depth=1
.Ltmp25:
	.loc	2 63 37 is_stmt 1               # src/parsing/parsing_file.c:63:37
	movq	-32(%rbp), %rax
	movq	%rax, -48(%rbp)                 # 8-byte Spill
	.loc	2 63 56 is_stmt 0               # src/parsing/parsing_file.c:63:56
	movq	-32(%rbp), %rdi
	.loc	2 63 46                         # src/parsing/parsing_file.c:63:46
	callq	ft_strlen
	movq	-48(%rbp), %rdi                 # 8-byte Reload
	movq	%rax, %rdx
	.loc	2 63 27                         # src/parsing/parsing_file.c:63:27
	xorl	%esi, %esi
	callq	ft_substr
	movq	%rax, %rdx
	.loc	2 63 4                          # src/parsing/parsing_file.c:63:4
	movq	-8(%rbp), %rax
	.loc	2 63 11                         # src/parsing/parsing_file.c:63:11
	movq	32(%rax), %rax
	.loc	2 63 17                         # src/parsing/parsing_file.c:63:17
	movq	48(%rax), %rax
	.loc	2 63 4                          # src/parsing/parsing_file.c:63:4
	movslq	-20(%rbp), %rcx
	.loc	2 63 25                         # src/parsing/parsing_file.c:63:25
	movq	%rdx, (%rax,%rcx,8)
	.loc	2 63 4                          # src/parsing/parsing_file.c:63:4
	jmp	.LBB2_8
.LBB2_7:                                #   in Loop: Header=BB2_3 Depth=1
	.loc	2 65 37 is_stmt 1               # src/parsing/parsing_file.c:65:37
	movq	-32(%rbp), %rax
	movq	%rax, -56(%rbp)                 # 8-byte Spill
	.loc	2 65 56 is_stmt 0               # src/parsing/parsing_file.c:65:56
	movq	-32(%rbp), %rdi
	.loc	2 65 46                         # src/parsing/parsing_file.c:65:46
	callq	ft_strlen
	movq	-56(%rbp), %rdi                 # 8-byte Reload
	movq	%rax, %rdx
	.loc	2 65 62                         # src/parsing/parsing_file.c:65:62
	subq	$1, %rdx
	.loc	2 65 27                         # src/parsing/parsing_file.c:65:27
	xorl	%esi, %esi
	callq	ft_substr
	movq	%rax, %rdx
	.loc	2 65 4                          # src/parsing/parsing_file.c:65:4
	movq	-8(%rbp), %rax
	.loc	2 65 11                         # src/parsing/parsing_file.c:65:11
	movq	32(%rax), %rax
	.loc	2 65 17                         # src/parsing/parsing_file.c:65:17
	movq	48(%rax), %rax
	.loc	2 65 4                          # src/parsing/parsing_file.c:65:4
	movslq	-20(%rbp), %rcx
	.loc	2 65 25                         # src/parsing/parsing_file.c:65:25
	movq	%rdx, (%rax,%rcx,8)
.Ltmp26:
.LBB2_8:                                #   in Loop: Header=BB2_3 Depth=1
	.loc	2 66 8 is_stmt 1                # src/parsing/parsing_file.c:66:8
	movq	-32(%rbp), %rdi
	.loc	2 66 3 is_stmt 0                # src/parsing/parsing_file.c:66:3
	callq	free
	.loc	2 67 4 is_stmt 1                # src/parsing/parsing_file.c:67:4
	movl	-20(%rbp), %eax
	addl	$1, %eax
	movl	%eax, -20(%rbp)
.Ltmp27:
	.loc	2 57 2                          # src/parsing/parsing_file.c:57:2
	jmp	.LBB2_3
.LBB2_9:
	.loc	2 69 2                          # src/parsing/parsing_file.c:69:2
	movq	-8(%rbp), %rax
	.loc	2 69 9 is_stmt 0                # src/parsing/parsing_file.c:69:9
	movq	32(%rax), %rax
	.loc	2 69 15                         # src/parsing/parsing_file.c:69:15
	movq	48(%rax), %rax
	.loc	2 69 2                          # src/parsing/parsing_file.c:69:2
	movslq	-20(%rbp), %rcx
	.loc	2 69 23                         # src/parsing/parsing_file.c:69:23
	movq	$0, (%rax,%rcx,8)
	.loc	2 70 8 is_stmt 1                # src/parsing/parsing_file.c:70:8
	movq	-8(%rbp), %rax
	.loc	2 70 15 is_stmt 0               # src/parsing/parsing_file.c:70:15
	movq	32(%rax), %rax
	.loc	2 70 21                         # src/parsing/parsing_file.c:70:21
	movl	(%rax), %edi
	.loc	2 70 2                          # src/parsing/parsing_file.c:70:2
	callq	close
	.loc	2 71 1 is_stmt 1                # src/parsing/parsing_file.c:71:1
	addq	$64, %rsp
	popq	%rbp
	.cfi_def_cfa %rsp, 8
	retq
.Ltmp28:
.Lfunc_end2:
	.size	extract_file, .Lfunc_end2-extract_file
	.cfi_endproc
                                        # -- End function
	.globl	extract_elements                # -- Begin function extract_elements
	.p2align	4, 0x90
	.type	extract_elements,@function
extract_elements:                       # @extract_elements
.Lfunc_begin3:
	.loc	2 74 0                          # src/parsing/parsing_file.c:74:0
	.cfi_startproc
# %bb.0:
	pushq	%rbp
	.cfi_def_cfa_offset 16
	.cfi_offset %rbp, -16
	movq	%rsp, %rbp
	.cfi_def_cfa_register %rbp
	subq	$32, %rsp
	movq	%rdi, -8(%rbp)
.Ltmp29:
	.loc	2 79 4 prologue_end             # src/parsing/parsing_file.c:79:4
	movl	$0, -12(%rbp)
	.loc	2 80 13                         # src/parsing/parsing_file.c:80:13
	movl	$-1, -16(%rbp)
	.loc	2 81 2                          # src/parsing/parsing_file.c:81:2
	movq	-8(%rbp), %rax
	.loc	2 81 9 is_stmt 0                # src/parsing/parsing_file.c:81:9
	movq	32(%rax), %rax
	.loc	2 81 20                         # src/parsing/parsing_file.c:81:20
	movb	$0, 4(%rax)
.LBB3_1:                                # =>This Loop Header: Depth=1
                                        #     Child Loop BB3_5 Depth 2
	.loc	2 82 9 is_stmt 1                # src/parsing/parsing_file.c:82:9
	movq	-8(%rbp), %rax
	.loc	2 82 16 is_stmt 0               # src/parsing/parsing_file.c:82:16
	movq	32(%rax), %rax
	.loc	2 82 22                         # src/parsing/parsing_file.c:82:22
	movq	48(%rax), %rcx
	.loc	2 82 9                          # src/parsing/parsing_file.c:82:9
	movslq	-12(%rbp), %rdx
	xorl	%eax, %eax
                                        # kill: def $al killed $al killed $eax
	cmpq	$0, (%rcx,%rdx,8)
	movb	%al, -25(%rbp)                  # 1-byte Spill
	.loc	2 82 30                         # src/parsing/parsing_file.c:82:30
	je	.LBB3_3
# %bb.2:                                #   in Loop: Header=BB3_1 Depth=1
	.loc	2 82 55                         # src/parsing/parsing_file.c:82:55
	movq	-8(%rbp), %rax
	.loc	2 82 62                         # src/parsing/parsing_file.c:82:62
	movq	32(%rax), %rax
	.loc	2 82 55                         # src/parsing/parsing_file.c:82:55
	movzbl	4(%rax), %edi
	.loc	2 82 34                         # src/parsing/parsing_file.c:82:34
	callq	are_all_elements_set
	.loc	2 82 33                         # src/parsing/parsing_file.c:82:33
	xorb	$-1, %al
	movb	%al, -25(%rbp)                  # 1-byte Spill
.LBB3_3:                                #   in Loop: Header=BB3_1 Depth=1
	.loc	2 0 33                          # src/parsing/parsing_file.c:0:33
	movb	-25(%rbp), %al                  # 1-byte Reload
	.loc	2 82 2                          # src/parsing/parsing_file.c:82:2
	testb	$1, %al
	jne	.LBB3_4
	jmp	.LBB3_19
.LBB3_4:                                #   in Loop: Header=BB3_1 Depth=1
.Ltmp30:
	.loc	2 84 3 is_stmt 1                # src/parsing/parsing_file.c:84:3
	jmp	.LBB3_5
.LBB3_5:                                #   Parent Loop BB3_1 Depth=1
                                        # =>  This Inner Loop Header: Depth=2
	.loc	2 84 20 is_stmt 0               # src/parsing/parsing_file.c:84:20
	movq	-8(%rbp), %rax
	.loc	2 84 27                         # src/parsing/parsing_file.c:84:27
	movq	32(%rax), %rax
	.loc	2 84 33                         # src/parsing/parsing_file.c:84:33
	movq	48(%rax), %rax
	.loc	2 84 20                         # src/parsing/parsing_file.c:84:20
	movslq	-12(%rbp), %rcx
	movq	(%rax,%rcx,8), %rdi
	.loc	2 84 10                         # src/parsing/parsing_file.c:84:10
	callq	ft_strlen
	.loc	2 84 42                         # src/parsing/parsing_file.c:84:42
	cmpq	$0, %rax
	.loc	2 84 3                          # src/parsing/parsing_file.c:84:3
	jne	.LBB3_7
# %bb.6:                                #   in Loop: Header=BB3_5 Depth=2
	.loc	2 85 5 is_stmt 1                # src/parsing/parsing_file.c:85:5
	movl	-12(%rbp), %eax
	addl	$1, %eax
	movl	%eax, -12(%rbp)
	.loc	2 84 3                          # src/parsing/parsing_file.c:84:3
	jmp	.LBB3_5
.LBB3_7:                                #   in Loop: Header=BB3_1 Depth=1
	.loc	2 86 23                         # src/parsing/parsing_file.c:86:23
	movq	-8(%rbp), %rax
	.loc	2 86 30 is_stmt 0               # src/parsing/parsing_file.c:86:30
	movq	32(%rax), %rax
	.loc	2 86 36                         # src/parsing/parsing_file.c:86:36
	movq	48(%rax), %rax
	.loc	2 86 23                         # src/parsing/parsing_file.c:86:23
	movslq	-12(%rbp), %rcx
	movq	(%rax,%rcx,8), %rdi
	.loc	2 86 8                          # src/parsing/parsing_file.c:86:8
	callq	get_identifier
	.loc	2 86 6                          # src/parsing/parsing_file.c:86:6
	movq	%rax, -24(%rbp)
.Ltmp31:
	.loc	2 87 8 is_stmt 1                # src/parsing/parsing_file.c:87:8
	cmpq	$0, -24(%rbp)
.Ltmp32:
	.loc	2 87 7 is_stmt 0                # src/parsing/parsing_file.c:87:7
	jne	.LBB3_9
# %bb.8:                                #   in Loop: Header=BB3_1 Depth=1
.Ltmp33:
	.loc	2 88 34 is_stmt 1               # src/parsing/parsing_file.c:88:34
	movq	-8(%rbp), %rdi
	.loc	2 88 4 is_stmt 0                # src/parsing/parsing_file.c:88:4
	movl	$5, %esi
	callq	print_error_then_exit_program
	jmp	.LBB3_18
.LBB3_9:                                #   in Loop: Header=BB3_1 Depth=1
.Ltmp34:
	.loc	2 89 29 is_stmt 1               # src/parsing/parsing_file.c:89:29
	movq	-24(%rbp), %rdi
	.loc	2 89 12 is_stmt 0               # src/parsing/parsing_file.c:89:12
	leaq	-16(%rbp), %rsi
	callq	is_valid_texture
.Ltmp35:
	.loc	2 89 12                         # src/parsing/parsing_file.c:89:12
	testb	$1, %al
	jne	.LBB3_10
	jmp	.LBB3_11
.LBB3_10:                               #   in Loop: Header=BB3_1 Depth=1
.Ltmp36:
	.loc	2 90 25 is_stmt 1               # src/parsing/parsing_file.c:90:25
	movq	-8(%rbp), %rdi
	.loc	2 90 32 is_stmt 0               # src/parsing/parsing_file.c:90:32
	movq	-24(%rbp), %rsi
	.loc	2 90 36                         # src/parsing/parsing_file.c:90:36
	movl	-16(%rbp), %edx
	.loc	2 90 48                         # src/parsing/parsing_file.c:90:48
	movq	-8(%rbp), %rax
	.loc	2 90 55                         # src/parsing/parsing_file.c:90:55
	movq	32(%rax), %rax
	.loc	2 90 61                         # src/parsing/parsing_file.c:90:61
	movq	48(%rax), %rax
	.loc	2 90 48                         # src/parsing/parsing_file.c:90:48
	movslq	-12(%rbp), %rcx
	movq	(%rax,%rcx,8), %rcx
	.loc	2 90 4                          # src/parsing/parsing_file.c:90:4
	callq	extract_texture_data
	jmp	.LBB3_17
.LBB3_11:                               #   in Loop: Header=BB3_1 Depth=1
.Ltmp37:
	.loc	2 91 27 is_stmt 1               # src/parsing/parsing_file.c:91:27
	movq	-24(%rbp), %rdi
	.loc	2 91 12 is_stmt 0               # src/parsing/parsing_file.c:91:12
	callq	is_valid_floor
.Ltmp38:
	.loc	2 91 12                         # src/parsing/parsing_file.c:91:12
	testb	$1, %al
	jne	.LBB3_12
	jmp	.LBB3_13
.LBB3_12:                               #   in Loop: Header=BB3_1 Depth=1
.Ltmp39:
	.loc	2 92 23 is_stmt 1               # src/parsing/parsing_file.c:92:23
	movq	-8(%rbp), %rdi
	.loc	2 92 30 is_stmt 0               # src/parsing/parsing_file.c:92:30
	movq	-8(%rbp), %rax
	.loc	2 92 37                         # src/parsing/parsing_file.c:92:37
	movq	32(%rax), %rax
	.loc	2 92 43                         # src/parsing/parsing_file.c:92:43
	movq	48(%rax), %rax
	.loc	2 92 30                         # src/parsing/parsing_file.c:92:30
	movslq	-12(%rbp), %rcx
	movq	(%rax,%rcx,8), %rsi
	.loc	2 92 4                          # src/parsing/parsing_file.c:92:4
	callq	extract_floor_data
	jmp	.LBB3_16
.LBB3_13:                               #   in Loop: Header=BB3_1 Depth=1
.Ltmp40:
	.loc	2 93 29 is_stmt 1               # src/parsing/parsing_file.c:93:29
	movq	-24(%rbp), %rdi
	.loc	2 93 12 is_stmt 0               # src/parsing/parsing_file.c:93:12
	callq	is_valid_ceiling
.Ltmp41:
	.loc	2 93 12                         # src/parsing/parsing_file.c:93:12
	testb	$1, %al
	jne	.LBB3_14
	jmp	.LBB3_15
.LBB3_14:                               #   in Loop: Header=BB3_1 Depth=1
.Ltmp42:
	.loc	2 94 25 is_stmt 1               # src/parsing/parsing_file.c:94:25
	movq	-8(%rbp), %rdi
	.loc	2 94 32 is_stmt 0               # src/parsing/parsing_file.c:94:32
	movq	-8(%rbp), %rax
	.loc	2 94 39                         # src/parsing/parsing_file.c:94:39
	movq	32(%rax), %rax
	.loc	2 94 45                         # src/parsing/parsing_file.c:94:45
	movq	48(%rax), %rax
	.loc	2 94 32                         # src/parsing/parsing_file.c:94:32
	movslq	-12(%rbp), %rcx
	movq	(%rax,%rcx,8), %rsi
	.loc	2 94 4                          # src/parsing/parsing_file.c:94:4
	callq	extract_ceiling_data
.Ltmp43:
.LBB3_15:                               #   in Loop: Header=BB3_1 Depth=1
	.loc	2 0 4                           # src/parsing/parsing_file.c:0:4
	jmp	.LBB3_16
.LBB3_16:                               #   in Loop: Header=BB3_1 Depth=1
	jmp	.LBB3_17
.LBB3_17:                               #   in Loop: Header=BB3_1 Depth=1
	jmp	.LBB3_18
.LBB3_18:                               #   in Loop: Header=BB3_1 Depth=1
	.loc	2 95 8 is_stmt 1                # src/parsing/parsing_file.c:95:8
	movq	-24(%rbp), %rdi
	.loc	2 95 3 is_stmt 0                # src/parsing/parsing_file.c:95:3
	callq	free
	.loc	2 96 4 is_stmt 1                # src/parsing/parsing_file.c:96:4
	movl	-12(%rbp), %eax
	addl	$1, %eax
	movl	%eax, -12(%rbp)
.Ltmp44:
	.loc	2 82 2                          # src/parsing/parsing_file.c:82:2
	jmp	.LBB3_1
.LBB3_19:
	.loc	2 98 24                         # src/parsing/parsing_file.c:98:24
	movl	-12(%rbp), %ecx
	.loc	2 98 2 is_stmt 0                # src/parsing/parsing_file.c:98:2
	movq	-8(%rbp), %rax
	.loc	2 98 9                          # src/parsing/parsing_file.c:98:9
	movq	32(%rax), %rax
	.loc	2 98 22                         # src/parsing/parsing_file.c:98:22
	movl	%ecx, 8(%rax)
	.loc	2 99 1 is_stmt 1                # src/parsing/parsing_file.c:99:1
	addq	$32, %rsp
	popq	%rbp
	.cfi_def_cfa %rsp, 8
	retq
.Ltmp45:
.Lfunc_end3:
	.size	extract_elements, .Lfunc_end3-extract_elements
	.cfi_endproc
                                        # -- End function
	.globl	extract_input_file              # -- Begin function extract_input_file
	.p2align	4, 0x90
	.type	extract_input_file,@function
extract_input_file:                     # @extract_input_file
.Lfunc_begin4:
	.loc	2 102 0                         # src/parsing/parsing_file.c:102:0
	.cfi_startproc
# %bb.0:
	pushq	%rbp
	.cfi_def_cfa_offset 16
	.cfi_offset %rbp, -16
	movq	%rsp, %rbp
	.cfi_def_cfa_register %rbp
	subq	$16, %rsp
	movq	%rdi, -8(%rbp)
	movq	%rsi, -16(%rbp)
.Ltmp46:
	.loc	2 103 26 prologue_end           # src/parsing/parsing_file.c:103:26
	movq	-16(%rbp), %rdi
	.loc	2 103 6 is_stmt 0               # src/parsing/parsing_file.c:103:6
	callq	is_filename_correct
.Ltmp47:
	.loc	2 103 6                         # src/parsing/parsing_file.c:103:6
	testb	$1, %al
	jne	.LBB4_1
	jmp	.LBB4_2
.LBB4_1:
.Ltmp48:
	.loc	2 105 16 is_stmt 1              # src/parsing/parsing_file.c:105:16
	movq	-8(%rbp), %rdi
	.loc	2 105 23 is_stmt 0              # src/parsing/parsing_file.c:105:23
	movq	-16(%rbp), %rsi
	.loc	2 105 3                         # src/parsing/parsing_file.c:105:3
	callq	extract_file
	.loc	2 106 20 is_stmt 1              # src/parsing/parsing_file.c:106:20
	movq	-8(%rbp), %rdi
	.loc	2 106 3 is_stmt 0               # src/parsing/parsing_file.c:106:3
	callq	extract_elements
	.loc	2 107 15 is_stmt 1              # src/parsing/parsing_file.c:107:15
	movq	-8(%rbp), %rdi
	.loc	2 107 3 is_stmt 0               # src/parsing/parsing_file.c:107:3
	callq	extract_map
	.loc	2 108 3 is_stmt 1               # src/parsing/parsing_file.c:108:3
	addq	$16, %rsp
	popq	%rbp
	.cfi_def_cfa %rsp, 8
	retq
.Ltmp49:
.LBB4_2:
	.cfi_def_cfa %rbp, 16
	.loc	2 110 32                        # src/parsing/parsing_file.c:110:32
	movq	-8(%rbp), %rdi
	.loc	2 110 2 is_stmt 0               # src/parsing/parsing_file.c:110:2
	movl	$4, %esi
	callq	print_error_then_exit_program
	.loc	2 111 2 is_stmt 1               # src/parsing/parsing_file.c:111:2
	movl	$1, %edi
	callq	exit
.Ltmp50:
.Lfunc_end4:
	.size	extract_input_file, .Lfunc_end4-extract_input_file
	.cfi_endproc
                                        # -- End function
	.file	3 "/usr/include/x86_64-linux-gnu/bits" "types.h"
	.file	4 "/usr/include/x86_64-linux-gnu/bits" "stdint-uintn.h"
	.file	5 "/home/algadea/Dev/42/cube3d/misc/cub3d" "src/parsing/../../include/cub3d_player.h"
	.section	".note.GNU-stack","",@progbits
	.addrsig
	.addrsig_sym open_file
	.addrsig_sym open
	.addrsig_sym print_error_then_exit_program
	.addrsig_sym clean_program
	.addrsig_sym exit
	.addrsig_sym get_file_length
	.addrsig_sym get_next_line
	.addrsig_sym free
	.addrsig_sym close
	.addrsig_sym extract_file
	.addrsig_sym malloc
	.addrsig_sym ft_substr
	.addrsig_sym ft_strlen
	.addrsig_sym extract_elements
	.addrsig_sym are_all_elements_set
	.addrsig_sym get_identifier
	.addrsig_sym is_valid_texture
	.addrsig_sym extract_texture_data
	.addrsig_sym is_valid_floor
	.addrsig_sym extract_floor_data
	.addrsig_sym is_valid_ceiling
	.addrsig_sym extract_ceiling_data
	.addrsig_sym is_filename_correct
	.addrsig_sym extract_map