	.text
	.file	"parsing_texture.c"
	.file	1 "/home/algadea/Dev/42/cube3d/misc/cub3d" "src/parsing/../../include/cub3d.h"
	.globl	get_texture_filename            # -- Begin function get_texture_filename
	.p2align	4, 0x90
	.type	get_texture_filename,@function
get_texture_filename:                   # @get_texture_filename
.Lfunc_begin0:
	.file	2 "/home/algadea/Dev/42/cube3d/misc/cub3d" "src/parsing/parsing_texture.c"
	.loc	2 16 0                          # src/parsing/parsing_texture.c:16:0
	.cfi_startproc
# %bb.0:
	pushq	%rbp
	.cfi_def_cfa_offset 16
	.cfi_offset %rbp, -16
	movq	%rsp, %rbp
	.cfi_def_cfa_register %rbp
	subq	$64, %rsp
	movq	%rdi, -8(%rbp)
	movq	%rsi, -16(%rbp)
	movq	%rdx, -24(%rbp)
.Ltmp0:
	.loc	2 22 16 prologue_end            # src/parsing/parsing_texture.c:22:16
	movq	-16(%rbp), %rdi
	.loc	2 22 6 is_stmt 0                # src/parsing/parsing_texture.c:22:6
	callq	ft_strlen
                                        # kill: def $eax killed $eax killed $rax
	.loc	2 22 4                          # src/parsing/parsing_texture.c:22:4
	movl	%eax, -28(%rbp)
.LBB0_1:                                # =>This Inner Loop Header: Depth=1
	.loc	2 23 9 is_stmt 1                # src/parsing/parsing_texture.c:23:9
	movq	-24(%rbp), %rax
	movslq	-28(%rbp), %rcx
	movsbl	(%rax,%rcx), %ecx
	xorl	%eax, %eax
                                        # kill: def $al killed $al killed $eax
	cmpl	$0, %ecx
	movb	%al, -49(%rbp)                  # 1-byte Spill
	.loc	2 23 17 is_stmt 0               # src/parsing/parsing_texture.c:23:17
	je	.LBB0_3
# %bb.2:                                #   in Loop: Header=BB0_1 Depth=1
	.loc	2 23 29                         # src/parsing/parsing_texture.c:23:29
	movq	-24(%rbp), %rax
	movslq	-28(%rbp), %rcx
	.loc	2 23 20                         # src/parsing/parsing_texture.c:23:20
	movsbl	(%rax,%rcx), %edi
	callq	is_space
	movb	%al, -49(%rbp)                  # 1-byte Spill
.LBB0_3:                                #   in Loop: Header=BB0_1 Depth=1
	.loc	2 0 20                          # src/parsing/parsing_texture.c:0:20
	movb	-49(%rbp), %al                  # 1-byte Reload
	.loc	2 23 2                          # src/parsing/parsing_texture.c:23:2
	testb	$1, %al
	jne	.LBB0_4
	jmp	.LBB0_5
.LBB0_4:                                #   in Loop: Header=BB0_1 Depth=1
	.loc	2 24 4 is_stmt 1                # src/parsing/parsing_texture.c:24:4
	movl	-28(%rbp), %eax
	addl	$1, %eax
	movl	%eax, -28(%rbp)
	.loc	2 23 2                          # src/parsing/parsing_texture.c:23:2
	jmp	.LBB0_1
.LBB0_5:
	.loc	2 25 19                         # src/parsing/parsing_texture.c:25:19
	movq	-24(%rbp), %rdi
	movslq	-28(%rbp), %rax
	addq	%rax, %rdi
	.loc	2 25 8 is_stmt 0                # src/parsing/parsing_texture.c:25:8
	callq	ft_strlen
                                        # kill: def $eax killed $eax killed $rax
	.loc	2 25 6                          # src/parsing/parsing_texture.c:25:6
	movl	%eax, -36(%rbp)
	.loc	2 26 20 is_stmt 1               # src/parsing/parsing_texture.c:26:20
	movl	-36(%rbp), %eax
	.loc	2 26 24 is_stmt 0               # src/parsing/parsing_texture.c:26:24
	addl	$1, %eax
	.loc	2 26 20                         # src/parsing/parsing_texture.c:26:20
	movslq	%eax, %rdi
	.loc	2 26 13                         # src/parsing/parsing_texture.c:26:13
	callq	malloc
	.loc	2 26 11                         # src/parsing/parsing_texture.c:26:11
	movq	%rax, -48(%rbp)
.Ltmp1:
	.loc	2 27 7 is_stmt 1                # src/parsing/parsing_texture.c:27:7
	cmpq	$0, -48(%rbp)
.Ltmp2:
	.loc	2 27 6 is_stmt 0                # src/parsing/parsing_texture.c:27:6
	jne	.LBB0_7
# %bb.6:
.Ltmp3:
	.loc	2 28 33 is_stmt 1               # src/parsing/parsing_texture.c:28:33
	movq	-8(%rbp), %rdi
	.loc	2 28 3 is_stmt 0                # src/parsing/parsing_texture.c:28:3
	movl	$9, %esi
	callq	print_error_then_exit_program
.Ltmp4:
.LBB0_7:
	.loc	2 29 4 is_stmt 1                # src/parsing/parsing_texture.c:29:4
	movl	$0, -32(%rbp)
.LBB0_8:                                # =>This Inner Loop Header: Depth=1
	.loc	2 30 9                          # src/parsing/parsing_texture.c:30:9
	movl	-32(%rbp), %eax
	.loc	2 30 11 is_stmt 0               # src/parsing/parsing_texture.c:30:11
	cmpl	-36(%rbp), %eax
	.loc	2 30 2                          # src/parsing/parsing_texture.c:30:2
	jge	.LBB0_10
# %bb.9:                                #   in Loop: Header=BB0_8 Depth=1
.Ltmp5:
	.loc	2 32 17 is_stmt 1               # src/parsing/parsing_texture.c:32:17
	movq	-24(%rbp), %rax
	movslq	-28(%rbp), %rcx
	movb	(%rax,%rcx), %dl
	.loc	2 32 3 is_stmt 0                # src/parsing/parsing_texture.c:32:3
	movq	-48(%rbp), %rax
	movslq	-32(%rbp), %rcx
	.loc	2 32 15                         # src/parsing/parsing_texture.c:32:15
	movb	%dl, (%rax,%rcx)
	.loc	2 33 4 is_stmt 1                # src/parsing/parsing_texture.c:33:4
	movl	-32(%rbp), %eax
	addl	$1, %eax
	movl	%eax, -32(%rbp)
	.loc	2 34 4                          # src/parsing/parsing_texture.c:34:4
	movl	-28(%rbp), %eax
	addl	$1, %eax
	movl	%eax, -28(%rbp)
.Ltmp6:
	.loc	2 30 2                          # src/parsing/parsing_texture.c:30:2
	jmp	.LBB0_8
.LBB0_10:
	.loc	2 36 2                          # src/parsing/parsing_texture.c:36:2
	movq	-48(%rbp), %rax
	movslq	-32(%rbp), %rcx
	.loc	2 36 14 is_stmt 0               # src/parsing/parsing_texture.c:36:14
	movb	$0, (%rax,%rcx)
	.loc	2 37 10 is_stmt 1               # src/parsing/parsing_texture.c:37:10
	movq	-48(%rbp), %rax
	.loc	2 37 2 is_stmt 0                # src/parsing/parsing_texture.c:37:2
	addq	$64, %rsp
	popq	%rbp
	.cfi_def_cfa %rsp, 8
	retq
.Ltmp7:
.Lfunc_end0:
	.size	get_texture_filename, .Lfunc_end0-get_texture_filename
	.cfi_endproc
                                        # -- End function
	.globl	get_texture_xpm                 # -- Begin function get_texture_xpm
	.p2align	4, 0x90
	.type	get_texture_xpm,@function
get_texture_xpm:                        # @get_texture_xpm
.Lfunc_begin1:
	.loc	2 41 0 is_stmt 1                # src/parsing/parsing_texture.c:41:0
	.cfi_startproc
# %bb.0:
	pushq	%rbp
	.cfi_def_cfa_offset 16
	.cfi_offset %rbp, -16
	movq	%rsp, %rbp
	.cfi_def_cfa_register %rbp
	subq	$48, %rsp
	movq	%rdi, -8(%rbp)
	movq	%rsi, -16(%rbp)
	movq	%rdx, -24(%rbp)
.Ltmp8:
	.loc	2 45 34 prologue_end            # src/parsing/parsing_texture.c:45:34
	movq	-8(%rbp), %rdi
	.loc	2 45 41 is_stmt 0               # src/parsing/parsing_texture.c:45:41
	movq	-16(%rbp), %rsi
	.loc	2 45 45                         # src/parsing/parsing_texture.c:45:45
	movq	-24(%rbp), %rdx
	.loc	2 45 13                         # src/parsing/parsing_texture.c:45:13
	callq	get_texture_filename
	.loc	2 45 11                         # src/parsing/parsing_texture.c:45:11
	movq	%rax, -32(%rbp)
	.loc	2 46 12 is_stmt 1               # src/parsing/parsing_texture.c:46:12
	movl	$16, %edi
	callq	malloc
	.loc	2 46 10 is_stmt 0               # src/parsing/parsing_texture.c:46:10
	movq	%rax, -40(%rbp)
.Ltmp9:
	.loc	2 47 7 is_stmt 1                # src/parsing/parsing_texture.c:47:7
	cmpq	$0, -40(%rbp)
.Ltmp10:
	.loc	2 47 6 is_stmt 0                # src/parsing/parsing_texture.c:47:6
	jne	.LBB1_2
# %bb.1:
.Ltmp11:
	.loc	2 48 33 is_stmt 1               # src/parsing/parsing_texture.c:48:33
	movq	-8(%rbp), %rdi
	.loc	2 48 3 is_stmt 0                # src/parsing/parsing_texture.c:48:3
	movl	$9, %esi
	callq	print_error_then_exit_program
.Ltmp12:
.LBB1_2:
	.loc	2 49 39 is_stmt 1               # src/parsing/parsing_texture.c:49:39
	movq	-8(%rbp), %rax
	.loc	2 49 46 is_stmt 0               # src/parsing/parsing_texture.c:49:46
	movq	16(%rax), %rdi
	.loc	2 49 55                         # src/parsing/parsing_texture.c:49:55
	movq	-32(%rbp), %rsi
	.loc	2 50 5 is_stmt 1                # src/parsing/parsing_texture.c:50:5
	movq	-40(%rbp), %rdx
	.loc	2 50 22 is_stmt 0               # src/parsing/parsing_texture.c:50:22
	movq	-40(%rbp), %rcx
	.loc	2 50 31                         # src/parsing/parsing_texture.c:50:31
	addq	$4, %rcx
	.loc	2 49 17 is_stmt 1               # src/parsing/parsing_texture.c:49:17
	callq	mlx_xpm_file_to_image
	movq	%rax, %rcx
	.loc	2 49 2 is_stmt 0                # src/parsing/parsing_texture.c:49:2
	movq	-40(%rbp), %rax
	.loc	2 49 15                         # src/parsing/parsing_texture.c:49:15
	movq	%rcx, 8(%rax)
	.loc	2 53 7 is_stmt 1                # src/parsing/parsing_texture.c:53:7
	movq	-32(%rbp), %rdi
	.loc	2 53 2 is_stmt 0                # src/parsing/parsing_texture.c:53:2
	callq	free
	.loc	2 54 10 is_stmt 1               # src/parsing/parsing_texture.c:54:10
	movq	-40(%rbp), %rax
	.loc	2 54 2 is_stmt 0                # src/parsing/parsing_texture.c:54:2
	addq	$48, %rsp
	popq	%rbp
	.cfi_def_cfa %rsp, 8
	retq
.Ltmp13:
.Lfunc_end1:
	.size	get_texture_xpm, .Lfunc_end1-get_texture_xpm
	.cfi_endproc
                                        # -- End function
	.globl	extract_texture_data            # -- Begin function extract_texture_data
	.p2align	4, 0x90
	.type	extract_texture_data,@function
extract_texture_data:                   # @extract_texture_data
.Lfunc_begin2:
	.loc	2 58 0 is_stmt 1                # src/parsing/parsing_texture.c:58:0
	.cfi_startproc
# %bb.0:
	pushq	%rbp
	.cfi_def_cfa_offset 16
	.cfi_offset %rbp, -16
	movq	%rsp, %rbp
	.cfi_def_cfa_register %rbp
	subq	$32, %rsp
	movq	%rdi, -8(%rbp)
	movq	%rsi, -16(%rbp)
	movl	%edx, -20(%rbp)
	movq	%rcx, -32(%rbp)
.Ltmp14:
	.loc	2 59 29 prologue_end            # src/parsing/parsing_texture.c:59:29
	movl	-20(%rbp), %eax
	movb	%al, %cl
	.loc	2 59 41 is_stmt 0               # src/parsing/parsing_texture.c:59:41
	movq	-8(%rbp), %rax
	.loc	2 59 48                         # src/parsing/parsing_texture.c:59:48
	movq	32(%rax), %rax
	.loc	2 59 6                          # src/parsing/parsing_texture.c:59:6
	movzbl	%cl, %edi
	movzbl	4(%rax), %esi
	callq	is_element_already_set
	.loc	2 60 3 is_stmt 1                # src/parsing/parsing_texture.c:60:3
	testb	$1, %al
	jne	.LBB2_2
# %bb.1:
	.loc	2 60 21 is_stmt 0               # src/parsing/parsing_texture.c:60:21
	movq	-32(%rbp), %rdi
	.loc	2 60 27                         # src/parsing/parsing_texture.c:60:27
	movq	-16(%rbp), %rsi
	.loc	2 60 7                          # src/parsing/parsing_texture.c:60:7
	callq	is_valid_path
.Ltmp15:
	.loc	2 59 6 is_stmt 1                # src/parsing/parsing_texture.c:59:6
	testb	$1, %al
	jne	.LBB2_3
.LBB2_2:
.Ltmp16:
	.loc	2 61 33                         # src/parsing/parsing_texture.c:61:33
	movq	-8(%rbp), %rdi
	.loc	2 61 3 is_stmt 0                # src/parsing/parsing_texture.c:61:3
	movl	$5, %esi
	callq	print_error_then_exit_program
.Ltmp17:
.LBB2_3:
	.loc	2 62 17 is_stmt 1               # src/parsing/parsing_texture.c:62:17
	cmpl	$0, -20(%rbp)
.Ltmp18:
	.loc	2 62 6 is_stmt 0                # src/parsing/parsing_texture.c:62:6
	jne	.LBB2_5
# %bb.4:
.Ltmp19:
	.loc	2 63 44 is_stmt 1               # src/parsing/parsing_texture.c:63:44
	movq	-8(%rbp), %rdi
	.loc	2 63 51 is_stmt 0               # src/parsing/parsing_texture.c:63:51
	movq	-16(%rbp), %rsi
	.loc	2 63 55                         # src/parsing/parsing_texture.c:63:55
	movq	-32(%rbp), %rdx
	.loc	2 63 28                         # src/parsing/parsing_texture.c:63:28
	callq	get_texture_xpm
	movq	%rax, %rcx
	.loc	2 63 3                          # src/parsing/parsing_texture.c:63:3
	movq	-8(%rbp), %rax
	.loc	2 63 10                         # src/parsing/parsing_texture.c:63:10
	movq	24(%rax), %rax
	.loc	2 63 26                         # src/parsing/parsing_texture.c:63:26
	movq	%rcx, 16(%rax)
	.loc	2 63 3                          # src/parsing/parsing_texture.c:63:3
	jmp	.LBB2_14
.LBB2_5:
.Ltmp20:
	.loc	2 64 22 is_stmt 1               # src/parsing/parsing_texture.c:64:22
	cmpl	$3, -20(%rbp)
.Ltmp21:
	.loc	2 64 11 is_stmt 0               # src/parsing/parsing_texture.c:64:11
	jne	.LBB2_7
# %bb.6:
.Ltmp22:
	.loc	2 65 44 is_stmt 1               # src/parsing/parsing_texture.c:65:44
	movq	-8(%rbp), %rdi
	.loc	2 65 51 is_stmt 0               # src/parsing/parsing_texture.c:65:51
	movq	-16(%rbp), %rsi
	.loc	2 65 55                         # src/parsing/parsing_texture.c:65:55
	movq	-32(%rbp), %rdx
	.loc	2 65 28                         # src/parsing/parsing_texture.c:65:28
	callq	get_texture_xpm
	movq	%rax, %rcx
	.loc	2 65 3                          # src/parsing/parsing_texture.c:65:3
	movq	-8(%rbp), %rax
	.loc	2 65 10                         # src/parsing/parsing_texture.c:65:10
	movq	24(%rax), %rax
	.loc	2 65 26                         # src/parsing/parsing_texture.c:65:26
	movq	%rcx, 24(%rax)
	.loc	2 65 3                          # src/parsing/parsing_texture.c:65:3
	jmp	.LBB2_13
.LBB2_7:
.Ltmp23:
	.loc	2 66 22 is_stmt 1               # src/parsing/parsing_texture.c:66:22
	cmpl	$2, -20(%rbp)
.Ltmp24:
	.loc	2 66 11 is_stmt 0               # src/parsing/parsing_texture.c:66:11
	jne	.LBB2_9
# %bb.8:
.Ltmp25:
	.loc	2 67 44 is_stmt 1               # src/parsing/parsing_texture.c:67:44
	movq	-8(%rbp), %rdi
	.loc	2 67 51 is_stmt 0               # src/parsing/parsing_texture.c:67:51
	movq	-16(%rbp), %rsi
	.loc	2 67 55                         # src/parsing/parsing_texture.c:67:55
	movq	-32(%rbp), %rdx
	.loc	2 67 28                         # src/parsing/parsing_texture.c:67:28
	callq	get_texture_xpm
	movq	%rax, %rcx
	.loc	2 67 3                          # src/parsing/parsing_texture.c:67:3
	movq	-8(%rbp), %rax
	.loc	2 67 10                         # src/parsing/parsing_texture.c:67:10
	movq	24(%rax), %rax
	.loc	2 67 26                         # src/parsing/parsing_texture.c:67:26
	movq	%rcx, 32(%rax)
	.loc	2 67 3                          # src/parsing/parsing_texture.c:67:3
	jmp	.LBB2_12
.LBB2_9:
.Ltmp26:
	.loc	2 68 22 is_stmt 1               # src/parsing/parsing_texture.c:68:22
	cmpl	$1, -20(%rbp)
.Ltmp27:
	.loc	2 68 11 is_stmt 0               # src/parsing/parsing_texture.c:68:11
	jne	.LBB2_11
# %bb.10:
.Ltmp28:
	.loc	2 69 44 is_stmt 1               # src/parsing/parsing_texture.c:69:44
	movq	-8(%rbp), %rdi
	.loc	2 69 51 is_stmt 0               # src/parsing/parsing_texture.c:69:51
	movq	-16(%rbp), %rsi
	.loc	2 69 55                         # src/parsing/parsing_texture.c:69:55
	movq	-32(%rbp), %rdx
	.loc	2 69 28                         # src/parsing/parsing_texture.c:69:28
	callq	get_texture_xpm
	movq	%rax, %rcx
	.loc	2 69 3                          # src/parsing/parsing_texture.c:69:3
	movq	-8(%rbp), %rax
	.loc	2 69 10                         # src/parsing/parsing_texture.c:69:10
	movq	24(%rax), %rax
	.loc	2 69 26                         # src/parsing/parsing_texture.c:69:26
	movq	%rcx, 40(%rax)
.Ltmp29:
.LBB2_11:
	.loc	2 0 26                          # src/parsing/parsing_texture.c:0:26
	jmp	.LBB2_12
.LBB2_12:
	jmp	.LBB2_13
.LBB2_13:
	jmp	.LBB2_14
.LBB2_14:
	.loc	2 70 19 is_stmt 1               # src/parsing/parsing_texture.c:70:19
	movl	-20(%rbp), %eax
                                        # kill: def $al killed $al killed $eax
	.loc	2 70 32 is_stmt 0               # src/parsing/parsing_texture.c:70:32
	movq	-8(%rbp), %rcx
	.loc	2 70 39                         # src/parsing/parsing_texture.c:70:39
	movq	32(%rcx), %rsi
	.loc	2 70 45                         # src/parsing/parsing_texture.c:70:45
	addq	$4, %rsi
	.loc	2 70 2                          # src/parsing/parsing_texture.c:70:2
	movzbl	%al, %edi
	callq	set_mask_element
	.loc	2 71 1 is_stmt 1                # src/parsing/parsing_texture.c:71:1
	addq	$32, %rsp
	popq	%rbp
	.cfi_def_cfa %rsp, 8
	retq
.Ltmp30:
.Lfunc_end2:
	.size	extract_texture_data, .Lfunc_end2-extract_texture_data
	.cfi_endproc
                                        # -- End function
	.file	3 "/usr/include/x86_64-linux-gnu/bits" "types.h"
	.file	4 "/usr/include/x86_64-linux-gnu/bits" "stdint-uintn.h"
	.file	5 "/home/algadea/Dev/42/cube3d/misc/cub3d" "src/parsing/../../include/cub3d_player.h"
	.section	".note.GNU-stack","",@progbits
	.addrsig
	.addrsig_sym get_texture_filename
	.addrsig_sym ft_strlen
	.addrsig_sym is_space
	.addrsig_sym malloc
	.addrsig_sym print_error_then_exit_program
	.addrsig_sym get_texture_xpm
	.addrsig_sym mlx_xpm_file_to_image
	.addrsig_sym free
	.addrsig_sym is_element_already_set
	.addrsig_sym is_valid_path
	.addrsig_sym set_mask_element