	.text
	.file	"parsing_floor.c"
	.file	1 "/home/algadea/Dev/42/cube3d/misc/cub3d" "src/parsing/../../include/cub3d.h"
	.globl	is_valid_floor                  # -- Begin function is_valid_floor
	.p2align	4, 0x90
	.type	is_valid_floor,@function
is_valid_floor:                         # @is_valid_floor
.Lfunc_begin0:
	.file	2 "/home/algadea/Dev/42/cube3d/misc/cub3d" "src/parsing/parsing_floor.c"
	.loc	2 16 0                          # src/parsing/parsing_floor.c:16:0
	.cfi_startproc
# %bb.0:
	pushq	%rbp
	.cfi_def_cfa_offset 16
	.cfi_offset %rbp, -16
	movq	%rsp, %rbp
	.cfi_def_cfa_register %rbp
	movq	%rdi, -16(%rbp)
.Ltmp0:
	.loc	2 17 7 prologue_end             # src/parsing/parsing_floor.c:17:7
	movq	-16(%rbp), %rax
	.loc	2 17 6 is_stmt 0                # src/parsing/parsing_floor.c:17:6
	movsbl	(%rax), %eax
	.loc	2 17 15                         # src/parsing/parsing_floor.c:17:15
	cmpl	$70, %eax
.Ltmp1:
	.loc	2 17 6                          # src/parsing/parsing_floor.c:17:6
	jne	.LBB0_2
# %bb.1:
.Ltmp2:
	.loc	2 18 3 is_stmt 1                # src/parsing/parsing_floor.c:18:3
	movb	$1, -1(%rbp)
	jmp	.LBB0_3
.Ltmp3:
.LBB0_2:
	.loc	2 19 2                          # src/parsing/parsing_floor.c:19:2
	movb	$0, -1(%rbp)
.LBB0_3:
	.loc	2 20 1                          # src/parsing/parsing_floor.c:20:1
	movb	-1(%rbp), %al
	andb	$1, %al
	movzbl	%al, %eax
	popq	%rbp
	.cfi_def_cfa %rsp, 8
	retq
.Ltmp4:
.Lfunc_end0:
	.size	is_valid_floor, .Lfunc_end0-is_valid_floor
	.cfi_endproc
                                        # -- End function
	.globl	extract_floor_data              # -- Begin function extract_floor_data
	.p2align	4, 0x90
	.type	extract_floor_data,@function
extract_floor_data:                     # @extract_floor_data
.Lfunc_begin1:
	.loc	2 23 0                          # src/parsing/parsing_floor.c:23:0
	.cfi_startproc
# %bb.0:
	pushq	%rbp
	.cfi_def_cfa_offset 16
	.cfi_offset %rbp, -16
	movq	%rsp, %rbp
	.cfi_def_cfa_register %rbp
	subq	$48, %rsp
	movq	%rdi, -8(%rbp)
	movq	%rsi, -16(%rbp)
.Ltmp5:
	.loc	2 29 4 prologue_end             # src/parsing/parsing_floor.c:29:4
	movl	$0, -20(%rbp)
	.loc	2 30 4                          # src/parsing/parsing_floor.c:30:4
	movl	$0, -24(%rbp)
	.loc	2 31 18                         # src/parsing/parsing_floor.c:31:18
	movq	-16(%rbp), %rdi
	.loc	2 31 8 is_stmt 0                # src/parsing/parsing_floor.c:31:8
	callq	ft_strlen
                                        # kill: def $eax killed $eax killed $rax
	.loc	2 31 6                          # src/parsing/parsing_floor.c:31:6
	movl	%eax, -28(%rbp)
.LBB1_1:                                # =>This Inner Loop Header: Depth=1
	.loc	2 32 9 is_stmt 1                # src/parsing/parsing_floor.c:32:9
	movq	-16(%rbp), %rax
	movslq	-20(%rbp), %rcx
	movsbl	(%rax,%rcx), %ecx
	xorl	%eax, %eax
                                        # kill: def $al killed $al killed $eax
	cmpl	$0, %ecx
	movb	%al, -41(%rbp)                  # 1-byte Spill
	.loc	2 32 17 is_stmt 0               # src/parsing/parsing_floor.c:32:17
	je	.LBB1_3
# %bb.2:                                #   in Loop: Header=BB1_1 Depth=1
	.loc	2 32 22                         # src/parsing/parsing_floor.c:32:22
	cmpl	$3, -24(%rbp)
	setl	%al
	movb	%al, -41(%rbp)                  # 1-byte Spill
.LBB1_3:                                #   in Loop: Header=BB1_1 Depth=1
	.loc	2 0 22                          # src/parsing/parsing_floor.c:0:22
	movb	-41(%rbp), %al                  # 1-byte Reload
	.loc	2 32 2                          # src/parsing/parsing_floor.c:32:2
	testb	$1, %al
	jne	.LBB1_4
	jmp	.LBB1_9
.LBB1_4:                                #   in Loop: Header=BB1_1 Depth=1
.Ltmp6:
	.loc	2 34 24 is_stmt 1               # src/parsing/parsing_floor.c:34:24
	movq	-16(%rbp), %rdi
	movslq	-20(%rbp), %rax
	addq	%rax, %rdi
	.loc	2 34 9 is_stmt 0                # src/parsing/parsing_floor.c:34:9
	callq	get_rgb_value
	.loc	2 34 7                          # src/parsing/parsing_floor.c:34:7
	movq	%rax, -40(%rbp)
.Ltmp7:
	.loc	2 35 8 is_stmt 1                # src/parsing/parsing_floor.c:35:8
	cmpq	$0, -40(%rbp)
.Ltmp8:
	.loc	2 35 7 is_stmt 0                # src/parsing/parsing_floor.c:35:7
	jne	.LBB1_6
# %bb.5:                                #   in Loop: Header=BB1_1 Depth=1
.Ltmp9:
	.loc	2 36 34 is_stmt 1               # src/parsing/parsing_floor.c:36:34
	movq	-8(%rbp), %rdi
	.loc	2 36 4 is_stmt 0                # src/parsing/parsing_floor.c:36:4
	movl	$7, %esi
	callq	print_error_then_exit_program
.Ltmp10:
.LBB1_6:                                #   in Loop: Header=BB1_1 Depth=1
	.loc	2 37 34 is_stmt 1               # src/parsing/parsing_floor.c:37:34
	movq	-40(%rbp), %rdi
	.loc	2 37 26 is_stmt 0               # src/parsing/parsing_floor.c:37:26
	callq	ft_atoi
	movb	%al, %dl
	.loc	2 37 3                          # src/parsing/parsing_floor.c:37:3
	movq	-8(%rbp), %rax
	.loc	2 37 10                         # src/parsing/parsing_floor.c:37:10
	movq	24(%rax), %rax
	.loc	2 37 3                          # src/parsing/parsing_floor.c:37:3
	movslq	-24(%rbp), %rcx
	.loc	2 37 24                         # src/parsing/parsing_floor.c:37:24
	movb	%dl, 51(%rax,%rcx)
	.loc	2 38 18 is_stmt 1               # src/parsing/parsing_floor.c:38:18
	movq	-40(%rbp), %rdi
	.loc	2 38 8 is_stmt 0                # src/parsing/parsing_floor.c:38:8
	callq	ft_strlen
	movq	%rax, %rcx
	.loc	2 38 23                         # src/parsing/parsing_floor.c:38:23
	addq	$1, %rcx
	.loc	2 38 5                          # src/parsing/parsing_floor.c:38:5
	movslq	-20(%rbp), %rax
	addq	%rcx, %rax
                                        # kill: def $eax killed $eax killed $rax
	movl	%eax, -20(%rbp)
	.loc	2 39 4 is_stmt 1                # src/parsing/parsing_floor.c:39:4
	movl	-24(%rbp), %eax
	addl	$1, %eax
	movl	%eax, -24(%rbp)
	.loc	2 40 8                          # src/parsing/parsing_floor.c:40:8
	movq	-40(%rbp), %rdi
	.loc	2 40 3 is_stmt 0                # src/parsing/parsing_floor.c:40:3
	callq	free
.Ltmp11:
	.loc	2 41 7 is_stmt 1                # src/parsing/parsing_floor.c:41:7
	movl	-20(%rbp), %eax
	.loc	2 41 9 is_stmt 0                # src/parsing/parsing_floor.c:41:9
	cmpl	-28(%rbp), %eax
.Ltmp12:
	.loc	2 41 7                          # src/parsing/parsing_floor.c:41:7
	jle	.LBB1_8
# %bb.7:
.Ltmp13:
	.loc	2 42 4 is_stmt 1                # src/parsing/parsing_floor.c:42:4
	jmp	.LBB1_9
.Ltmp14:
.LBB1_8:                                #   in Loop: Header=BB1_1 Depth=1
	.loc	2 32 2                          # src/parsing/parsing_floor.c:32:2
	jmp	.LBB1_1
.LBB1_9:
	.loc	2 44 29                         # src/parsing/parsing_floor.c:44:29
	movq	-8(%rbp), %rax
	.loc	2 44 36 is_stmt 0               # src/parsing/parsing_floor.c:44:36
	movq	32(%rax), %rsi
	.loc	2 44 42                         # src/parsing/parsing_floor.c:44:42
	addq	$4, %rsi
	.loc	2 44 2                          # src/parsing/parsing_floor.c:44:2
	movl	$4, %edi
	callq	set_mask_element
	.loc	2 45 1 is_stmt 1                # src/parsing/parsing_floor.c:45:1
	addq	$48, %rsp
	popq	%rbp
	.cfi_def_cfa %rsp, 8
	retq
.Ltmp15:
.Lfunc_end1:
	.size	extract_floor_data, .Lfunc_end1-extract_floor_data
	.cfi_endproc
                                        # -- End function
	.file	3 "/usr/include/x86_64-linux-gnu/bits" "types.h"
	.file	4 "/usr/include/x86_64-linux-gnu/bits" "stdint-uintn.h"
	.file	5 "/home/algadea/Dev/42/cube3d/misc/cub3d" "src/parsing/../../include/cub3d_player.h"
	.section	".note.GNU-stack","",@progbits
	.addrsig
	.addrsig_sym ft_strlen
	.addrsig_sym get_rgb_value
	.addrsig_sym print_error_then_exit_program
	.addrsig_sym ft_atoi
	.addrsig_sym free
	.addrsig_sym set_mask_element