	.text
	.file	"parsing.c"
	.file	1 "/home/algadea/Dev/42/cube3d/misc/cub3d" "src/parsing/../../include/cub3d.h"
	.globl	parse_elements                  # -- Begin function parse_elements
	.p2align	4, 0x90
	.type	parse_elements,@function
parse_elements:                         # @parse_elements
.Lfunc_begin0:
	.file	2 "/home/algadea/Dev/42/cube3d/misc/cub3d" "src/parsing/parsing.c"
	.loc	2 16 0                          # src/parsing/parsing.c:16:0
	.cfi_startproc
# %bb.0:
	pushq	%rbp
	.cfi_def_cfa_offset 16
	.cfi_offset %rbp, -16
	movq	%rsp, %rbp
	.cfi_def_cfa_register %rbp
	movq	%rdi, -8(%rbp)
.Ltmp0:
	.loc	2 18 1 prologue_end             # src/parsing/parsing.c:18:1
	popq	%rbp
	.cfi_def_cfa %rsp, 8
	retq
.Ltmp1:
.Lfunc_end0:
	.size	parse_elements, .Lfunc_end0-parse_elements
	.cfi_endproc
                                        # -- End function
	.globl	check_from_first_line           # -- Begin function check_from_first_line
	.p2align	4, 0x90
	.type	check_from_first_line,@function
check_from_first_line:                  # @check_from_first_line
.Lfunc_begin1:
	.loc	2 45 0                          # src/parsing/parsing.c:45:0
	.cfi_startproc
# %bb.0:
	pushq	%rbp
	.cfi_def_cfa_offset 16
	.cfi_offset %rbp, -16
	movq	%rsp, %rbp
	.cfi_def_cfa_register %rbp
	subq	$32, %rsp
	movq	%rdi, -8(%rbp)
	movq	%rsi, -16(%rbp)
.Ltmp2:
	.loc	2 48 4 prologue_end             # src/parsing/parsing.c:48:4
	movl	$0, -20(%rbp)
.LBB1_1:                                # =>This Inner Loop Header: Depth=1
	.loc	2 49 9                          # src/parsing/parsing.c:49:9
	movq	-16(%rbp), %rax
	movslq	-20(%rbp), %rcx
	.loc	2 49 2 is_stmt 0                # src/parsing/parsing.c:49:2
	cmpb	$0, (%rax,%rcx)
	je	.LBB1_5
# %bb.2:                                #   in Loop: Header=BB1_1 Depth=1
.Ltmp3:
	.loc	2 51 7 is_stmt 1                # src/parsing/parsing.c:51:7
	movq	-16(%rbp), %rax
	movslq	-20(%rbp), %rcx
	movsbl	(%rax,%rcx), %eax
	cmpl	$49, %eax
.Ltmp4:
	.loc	2 51 7 is_stmt 0                # src/parsing/parsing.c:51:7
	je	.LBB1_4
# %bb.3:                                #   in Loop: Header=BB1_1 Depth=1
.Ltmp5:
	.loc	2 52 34 is_stmt 1               # src/parsing/parsing.c:52:34
	movq	-8(%rbp), %rdi
	.loc	2 52 4 is_stmt 0                # src/parsing/parsing.c:52:4
	movl	$10, %esi
	callq	print_error_then_exit_program
.Ltmp6:
.LBB1_4:                                #   in Loop: Header=BB1_1 Depth=1
	.loc	2 53 4 is_stmt 1                # src/parsing/parsing.c:53:4
	movl	-20(%rbp), %eax
	addl	$1, %eax
	movl	%eax, -20(%rbp)
.Ltmp7:
	.loc	2 49 2                          # src/parsing/parsing.c:49:2
	jmp	.LBB1_1
.LBB1_5:
	.loc	2 55 1                          # src/parsing/parsing.c:55:1
	addq	$32, %rsp
	popq	%rbp
	.cfi_def_cfa %rsp, 8
	retq
.Ltmp8:
.Lfunc_end1:
	.size	check_from_first_line, .Lfunc_end1-check_from_first_line
	.cfi_endproc
                                        # -- End function
	.globl	check_from_last_line            # -- Begin function check_from_last_line
	.p2align	4, 0x90
	.type	check_from_last_line,@function
check_from_last_line:                   # @check_from_last_line
.Lfunc_begin2:
	.loc	2 58 0                          # src/parsing/parsing.c:58:0
	.cfi_startproc
# %bb.0:
	pushq	%rbp
	.cfi_def_cfa_offset 16
	.cfi_offset %rbp, -16
	movq	%rsp, %rbp
	.cfi_def_cfa_register %rbp
	subq	$32, %rsp
	movq	%rdi, -8(%rbp)
	movq	%rsi, -16(%rbp)
	movq	%rdx, -24(%rbp)
.Ltmp9:
	.loc	2 62 4 prologue_end             # src/parsing/parsing.c:62:4
	movl	$0, -28(%rbp)
	.loc	2 63 35                         # src/parsing/parsing.c:63:35
	movq	-24(%rbp), %rdi
	.loc	2 63 25 is_stmt 0               # src/parsing/parsing.c:63:25
	callq	ft_strlen
                                        # kill: def $eax killed $eax killed $rax
	.loc	2 63 23                         # src/parsing/parsing.c:63:23
	movl	%eax, -32(%rbp)
.LBB2_1:                                # =>This Inner Loop Header: Depth=1
	.loc	2 64 9 is_stmt 1                # src/parsing/parsing.c:64:9
	movq	-16(%rbp), %rax
	movslq	-28(%rbp), %rcx
	.loc	2 64 2 is_stmt 0                # src/parsing/parsing.c:64:2
	cmpb	$0, (%rax,%rcx)
	je	.LBB2_5
# %bb.2:                                #   in Loop: Header=BB2_1 Depth=1
.Ltmp10:
	.loc	2 66 7 is_stmt 1                # src/parsing/parsing.c:66:7
	movq	-16(%rbp), %rax
	movslq	-28(%rbp), %rcx
	movsbl	(%rax,%rcx), %eax
	cmpl	$49, %eax
.Ltmp11:
	.loc	2 66 7 is_stmt 0                # src/parsing/parsing.c:66:7
	je	.LBB2_4
# %bb.3:                                #   in Loop: Header=BB2_1 Depth=1
.Ltmp12:
	.loc	2 67 34 is_stmt 1               # src/parsing/parsing.c:67:34
	movq	-8(%rbp), %rdi
	.loc	2 67 4 is_stmt 0                # src/parsing/parsing.c:67:4
	movl	$10, %esi
	callq	print_error_then_exit_program
.Ltmp13:
.LBB2_4:                                #   in Loop: Header=BB2_1 Depth=1
	.loc	2 68 4 is_stmt 1                # src/parsing/parsing.c:68:4
	movl	-28(%rbp), %eax
	addl	$1, %eax
	movl	%eax, -28(%rbp)
.Ltmp14:
	.loc	2 64 2                          # src/parsing/parsing.c:64:2
	jmp	.LBB2_1
.LBB2_5:
.Ltmp15:
	.loc	2 70 6                          # src/parsing/parsing.c:70:6
	movl	-32(%rbp), %eax
	.loc	2 70 27 is_stmt 0               # src/parsing/parsing.c:70:27
	cmpl	-28(%rbp), %eax
.Ltmp16:
	.loc	2 70 6                          # src/parsing/parsing.c:70:6
	jle	.LBB2_12
# %bb.6:
.Ltmp17:
	.loc	2 72 4 is_stmt 1                # src/parsing/parsing.c:72:4
	movl	-28(%rbp), %eax
	addl	$1, %eax
	movl	%eax, -28(%rbp)
.LBB2_7:                                # =>This Inner Loop Header: Depth=1
	.loc	2 73 10                         # src/parsing/parsing.c:73:10
	movq	-24(%rbp), %rax
	movslq	-28(%rbp), %rcx
	.loc	2 73 3 is_stmt 0                # src/parsing/parsing.c:73:3
	cmpb	$0, (%rax,%rcx)
	je	.LBB2_11
# %bb.8:                                #   in Loop: Header=BB2_7 Depth=1
.Ltmp18:
	.loc	2 75 8 is_stmt 1                # src/parsing/parsing.c:75:8
	movq	-16(%rbp), %rax
	movslq	-28(%rbp), %rcx
	movsbl	(%rax,%rcx), %eax
	cmpl	$49, %eax
.Ltmp19:
	.loc	2 75 8 is_stmt 0                # src/parsing/parsing.c:75:8
	je	.LBB2_10
# %bb.9:                                #   in Loop: Header=BB2_7 Depth=1
.Ltmp20:
	.loc	2 76 35 is_stmt 1               # src/parsing/parsing.c:76:35
	movq	-8(%rbp), %rdi
	.loc	2 76 5 is_stmt 0                # src/parsing/parsing.c:76:5
	movl	$10, %esi
	callq	print_error_then_exit_program
.Ltmp21:
.LBB2_10:                               #   in Loop: Header=BB2_7 Depth=1
	.loc	2 77 5 is_stmt 1                # src/parsing/parsing.c:77:5
	movl	-28(%rbp), %eax
	addl	$1, %eax
	movl	%eax, -28(%rbp)
.Ltmp22:
	.loc	2 73 3                          # src/parsing/parsing.c:73:3
	jmp	.LBB2_7
.LBB2_11:
	.loc	2 79 2                          # src/parsing/parsing.c:79:2
	jmp	.LBB2_12
.Ltmp23:
.LBB2_12:
	.loc	2 80 1                          # src/parsing/parsing.c:80:1
	addq	$32, %rsp
	popq	%rbp
	.cfi_def_cfa %rsp, 8
	retq
.Ltmp24:
.Lfunc_end2:
	.size	check_from_last_line, .Lfunc_end2-check_from_last_line
	.cfi_endproc
                                        # -- End function
	.globl	check_line                      # -- Begin function check_line
	.p2align	4, 0x90
	.type	check_line,@function
check_line:                             # @check_line
.Lfunc_begin3:
	.loc	2 83 0                          # src/parsing/parsing.c:83:0
	.cfi_startproc
# %bb.0:
	pushq	%rbp
	.cfi_def_cfa_offset 16
	.cfi_offset %rbp, -16
	movq	%rsp, %rbp
	.cfi_def_cfa_register %rbp
	subq	$48, %rsp
	movq	%rdi, -8(%rbp)
	movq	%rsi, -16(%rbp)
	movq	%rdx, -24(%rbp)
.Ltmp25:
	.loc	2 88 26 prologue_end            # src/parsing/parsing.c:88:26
	movq	-16(%rbp), %rdi
	.loc	2 88 16 is_stmt 0               # src/parsing/parsing.c:88:16
	callq	ft_strlen
                                        # kill: def $eax killed $eax killed $rax
	.loc	2 88 14                         # src/parsing/parsing.c:88:14
	movl	%eax, -32(%rbp)
	.loc	2 89 35 is_stmt 1               # src/parsing/parsing.c:89:35
	movq	-24(%rbp), %rdi
	.loc	2 89 25 is_stmt 0               # src/parsing/parsing.c:89:25
	callq	ft_strlen
                                        # kill: def $eax killed $eax killed $rax
	.loc	2 89 23                         # src/parsing/parsing.c:89:23
	movl	%eax, -36(%rbp)
.Ltmp26:
	.loc	2 90 6 is_stmt 1                # src/parsing/parsing.c:90:6
	movq	-16(%rbp), %rax
	movsbl	(%rax), %eax
	.loc	2 90 14 is_stmt 0               # src/parsing/parsing.c:90:14
	cmpl	$49, %eax
	.loc	2 90 21                         # src/parsing/parsing.c:90:21
	jne	.LBB3_2
# %bb.1:
	.loc	2 90 24                         # src/parsing/parsing.c:90:24
	movq	-16(%rbp), %rax
	.loc	2 90 29                         # src/parsing/parsing.c:90:29
	movl	-32(%rbp), %ecx
	.loc	2 90 41                         # src/parsing/parsing.c:90:41
	subl	$1, %ecx
	.loc	2 90 24                         # src/parsing/parsing.c:90:24
	movslq	%ecx, %rcx
	movsbl	(%rax,%rcx), %eax
	.loc	2 90 46                         # src/parsing/parsing.c:90:46
	cmpl	$49, %eax
.Ltmp27:
	.loc	2 90 6                          # src/parsing/parsing.c:90:6
	je	.LBB3_3
.LBB3_2:
.Ltmp28:
	.loc	2 91 33 is_stmt 1               # src/parsing/parsing.c:91:33
	movq	-8(%rbp), %rdi
	.loc	2 91 3 is_stmt 0                # src/parsing/parsing.c:91:3
	movl	$10, %esi
	callq	print_error_then_exit_program
.Ltmp29:
.LBB3_3:
	.loc	2 92 4 is_stmt 1                # src/parsing/parsing.c:92:4
	movl	$1, -28(%rbp)
.LBB3_4:                                # =>This Inner Loop Header: Depth=1
	.loc	2 93 9                          # src/parsing/parsing.c:93:9
	movq	-16(%rbp), %rax
	movslq	-28(%rbp), %rcx
	movsbl	(%rax,%rcx), %ecx
	xorl	%eax, %eax
                                        # kill: def $al killed $al killed $eax
	cmpl	$0, %ecx
	movb	%al, -37(%rbp)                  # 1-byte Spill
	.loc	2 93 17 is_stmt 0               # src/parsing/parsing.c:93:17
	je	.LBB3_6
# %bb.5:                                #   in Loop: Header=BB3_4 Depth=1
	.loc	2 93 20                         # src/parsing/parsing.c:93:20
	movl	-28(%rbp), %eax
	.loc	2 93 22                         # src/parsing/parsing.c:93:22
	cmpl	-36(%rbp), %eax
	setl	%al
	movb	%al, -37(%rbp)                  # 1-byte Spill
.LBB3_6:                                #   in Loop: Header=BB3_4 Depth=1
	.loc	2 0 22                          # src/parsing/parsing.c:0:22
	movb	-37(%rbp), %al                  # 1-byte Reload
	.loc	2 93 2                          # src/parsing/parsing.c:93:2
	testb	$1, %al
	jne	.LBB3_7
	jmp	.LBB3_8
.LBB3_7:                                #   in Loop: Header=BB3_4 Depth=1
	.loc	2 94 4 is_stmt 1                # src/parsing/parsing.c:94:4
	movl	-28(%rbp), %eax
	addl	$1, %eax
	movl	%eax, -28(%rbp)
	.loc	2 93 2                          # src/parsing/parsing.c:93:2
	jmp	.LBB3_4
.LBB3_8:
	.loc	2 95 2                          # src/parsing/parsing.c:95:2
	jmp	.LBB3_9
.LBB3_9:                                # =>This Inner Loop Header: Depth=1
	.loc	2 95 9 is_stmt 0                # src/parsing/parsing.c:95:9
	movq	-16(%rbp), %rax
	movslq	-28(%rbp), %rcx
	.loc	2 95 2                          # src/parsing/parsing.c:95:2
	cmpb	$0, (%rax,%rcx)
	je	.LBB3_13
# %bb.10:                               #   in Loop: Header=BB3_9 Depth=1
.Ltmp30:
	.loc	2 97 7 is_stmt 1                # src/parsing/parsing.c:97:7
	movq	-16(%rbp), %rax
	movslq	-28(%rbp), %rcx
	movsbl	(%rax,%rcx), %eax
	.loc	2 97 15 is_stmt 0               # src/parsing/parsing.c:97:15
	cmpl	$49, %eax
.Ltmp31:
	.loc	2 97 7                          # src/parsing/parsing.c:97:7
	je	.LBB3_12
# %bb.11:                               #   in Loop: Header=BB3_9 Depth=1
.Ltmp32:
	.loc	2 98 34 is_stmt 1               # src/parsing/parsing.c:98:34
	movq	-8(%rbp), %rdi
	.loc	2 98 4 is_stmt 0                # src/parsing/parsing.c:98:4
	movl	$10, %esi
	callq	print_error_then_exit_program
.Ltmp33:
.LBB3_12:                               #   in Loop: Header=BB3_9 Depth=1
	.loc	2 99 4 is_stmt 1                # src/parsing/parsing.c:99:4
	movl	-28(%rbp), %eax
	addl	$1, %eax
	movl	%eax, -28(%rbp)
.Ltmp34:
	.loc	2 95 2                          # src/parsing/parsing.c:95:2
	jmp	.LBB3_9
.LBB3_13:
	.loc	2 101 1                         # src/parsing/parsing.c:101:1
	addq	$48, %rsp
	popq	%rbp
	.cfi_def_cfa %rsp, 8
	retq
.Ltmp35:
.Lfunc_end3:
	.size	check_line, .Lfunc_end3-check_line
	.cfi_endproc
                                        # -- End function
	.globl	check_map_wall                  # -- Begin function check_map_wall
	.p2align	4, 0x90
	.type	check_map_wall,@function
check_map_wall:                         # @check_map_wall
.Lfunc_begin4:
	.loc	2 104 0                         # src/parsing/parsing.c:104:0
	.cfi_startproc
# %bb.0:
	pushq	%rbp
	.cfi_def_cfa_offset 16
	.cfi_offset %rbp, -16
	movq	%rsp, %rbp
	.cfi_def_cfa_register %rbp
	subq	$32, %rsp
	movq	%rdi, -8(%rbp)
	movq	%rsi, -16(%rbp)
.Ltmp36:
	.loc	2 107 4 prologue_end            # src/parsing/parsing.c:107:4
	movq	$0, -24(%rbp)
.LBB4_1:                                # =>This Inner Loop Header: Depth=1
	.loc	2 108 9                         # src/parsing/parsing.c:108:9
	movq	-16(%rbp), %rax
	.loc	2 108 14 is_stmt 0              # src/parsing/parsing.c:108:14
	movq	56(%rax), %rax
	.loc	2 108 19                        # src/parsing/parsing.c:108:19
	movq	-24(%rbp), %rcx
	.loc	2 108 2                         # src/parsing/parsing.c:108:2
	cmpq	$0, (%rax,%rcx,8)
	je	.LBB4_9
# %bb.2:                                #   in Loop: Header=BB4_1 Depth=1
.Ltmp37:
	.loc	2 110 9 is_stmt 1               # src/parsing/parsing.c:110:9
	cmpq	$0, -24(%rbp)
.Ltmp38:
	.loc	2 110 7 is_stmt 0               # src/parsing/parsing.c:110:7
	jne	.LBB4_4
# %bb.3:                                #   in Loop: Header=BB4_1 Depth=1
.Ltmp39:
	.loc	2 111 26 is_stmt 1              # src/parsing/parsing.c:111:26
	movq	-8(%rbp), %rdi
	.loc	2 111 33 is_stmt 0              # src/parsing/parsing.c:111:33
	movq	-16(%rbp), %rax
	.loc	2 111 38                        # src/parsing/parsing.c:111:38
	movq	56(%rax), %rax
	.loc	2 111 43                        # src/parsing/parsing.c:111:43
	movq	-24(%rbp), %rcx
	.loc	2 111 33                        # src/parsing/parsing.c:111:33
	movq	(%rax,%rcx,8), %rsi
	.loc	2 111 4                         # src/parsing/parsing.c:111:4
	callq	check_from_first_line
	jmp	.LBB4_8
.LBB4_4:                                #   in Loop: Header=BB4_1 Depth=1
.Ltmp40:
	.loc	2 112 12 is_stmt 1              # src/parsing/parsing.c:112:12
	movq	-24(%rbp), %rax
	.loc	2 112 17 is_stmt 0              # src/parsing/parsing.c:112:17
	movq	-16(%rbp), %rcx
	movq	8(%rcx), %rcx
	subq	$1, %rcx
	.loc	2 112 14                        # src/parsing/parsing.c:112:14
	cmpq	%rcx, %rax
.Ltmp41:
	.loc	2 112 12                        # src/parsing/parsing.c:112:12
	jne	.LBB4_6
# %bb.5:                                #   in Loop: Header=BB4_1 Depth=1
.Ltmp42:
	.loc	2 113 25 is_stmt 1              # src/parsing/parsing.c:113:25
	movq	-8(%rbp), %rdi
	.loc	2 113 32 is_stmt 0              # src/parsing/parsing.c:113:32
	movq	-16(%rbp), %rax
	.loc	2 113 37                        # src/parsing/parsing.c:113:37
	movq	56(%rax), %rax
	.loc	2 113 42                        # src/parsing/parsing.c:113:42
	movq	-24(%rbp), %rcx
	.loc	2 113 32                        # src/parsing/parsing.c:113:32
	movq	(%rax,%rcx,8), %rsi
	.loc	2 113 46                        # src/parsing/parsing.c:113:46
	movq	-16(%rbp), %rax
	movq	56(%rax), %rax
	movq	-24(%rbp), %rcx
	subq	$1, %rcx
	movq	(%rax,%rcx,8), %rdx
	.loc	2 113 4                         # src/parsing/parsing.c:113:4
	callq	check_from_last_line
	jmp	.LBB4_7
.LBB4_6:                                #   in Loop: Header=BB4_1 Depth=1
	.loc	2 115 15 is_stmt 1              # src/parsing/parsing.c:115:15
	movq	-8(%rbp), %rdi
	.loc	2 115 22 is_stmt 0              # src/parsing/parsing.c:115:22
	movq	-16(%rbp), %rax
	.loc	2 115 27                        # src/parsing/parsing.c:115:27
	movq	56(%rax), %rax
	.loc	2 115 32                        # src/parsing/parsing.c:115:32
	movq	-24(%rbp), %rcx
	.loc	2 115 22                        # src/parsing/parsing.c:115:22
	movq	(%rax,%rcx,8), %rsi
	.loc	2 115 36                        # src/parsing/parsing.c:115:36
	movq	-16(%rbp), %rax
	movq	56(%rax), %rax
	movq	-24(%rbp), %rcx
	subq	$1, %rcx
	movq	(%rax,%rcx,8), %rdx
	.loc	2 115 4                         # src/parsing/parsing.c:115:4
	callq	check_line
.Ltmp43:
.LBB4_7:                                #   in Loop: Header=BB4_1 Depth=1
	.loc	2 0 4                           # src/parsing/parsing.c:0:4
	jmp	.LBB4_8
.LBB4_8:                                #   in Loop: Header=BB4_1 Depth=1
	.loc	2 116 4 is_stmt 1               # src/parsing/parsing.c:116:4
	movq	-24(%rbp), %rax
	addq	$1, %rax
	movq	%rax, -24(%rbp)
.Ltmp44:
	.loc	2 108 2                         # src/parsing/parsing.c:108:2
	jmp	.LBB4_1
.LBB4_9:
	.loc	2 118 1                         # src/parsing/parsing.c:118:1
	addq	$32, %rsp
	popq	%rbp
	.cfi_def_cfa %rsp, 8
	retq
.Ltmp45:
.Lfunc_end4:
	.size	check_map_wall, .Lfunc_end4-check_map_wall
	.cfi_endproc
                                        # -- End function
	.globl	parse_extracted_data            # -- Begin function parse_extracted_data
	.p2align	4, 0x90
	.type	parse_extracted_data,@function
parse_extracted_data:                   # @parse_extracted_data
.Lfunc_begin5:
	.loc	2 121 0                         # src/parsing/parsing.c:121:0
	.cfi_startproc
# %bb.0:
	pushq	%rbp
	.cfi_def_cfa_offset 16
	.cfi_offset %rbp, -16
	movq	%rsp, %rbp
	.cfi_def_cfa_register %rbp
	subq	$16, %rsp
	movq	%rdi, -8(%rbp)
.Ltmp46:
	.loc	2 122 17 prologue_end           # src/parsing/parsing.c:122:17
	movq	-8(%rbp), %rdi
	.loc	2 122 2 is_stmt 0               # src/parsing/parsing.c:122:2
	callq	parse_elements
	.loc	2 123 17 is_stmt 1              # src/parsing/parsing.c:123:17
	movq	-8(%rbp), %rdi
	.loc	2 123 24 is_stmt 0              # src/parsing/parsing.c:123:24
	movq	-8(%rbp), %rax
	.loc	2 123 31                        # src/parsing/parsing.c:123:31
	movq	24(%rax), %rsi
	.loc	2 123 2                         # src/parsing/parsing.c:123:2
	callq	check_map_wall
	.loc	2 124 17 is_stmt 1              # src/parsing/parsing.c:124:17
	movq	-8(%rbp), %rax
	.loc	2 124 24 is_stmt 0              # src/parsing/parsing.c:124:24
	movq	24(%rax), %rax
	.loc	2 124 29                        # src/parsing/parsing.c:124:29
	movq	56(%rax), %rdi
	.loc	2 124 2                         # src/parsing/parsing.c:124:2
	callq	print_map_data
	.loc	2 125 1 is_stmt 1               # src/parsing/parsing.c:125:1
	addq	$16, %rsp
	popq	%rbp
	.cfi_def_cfa %rsp, 8
	retq
.Ltmp47:
.Lfunc_end5:
	.size	parse_extracted_data, .Lfunc_end5-parse_extracted_data
	.cfi_endproc
                                        # -- End function
	.file	3 "/usr/include/x86_64-linux-gnu/bits" "types.h"
	.file	4 "/usr/include/x86_64-linux-gnu/bits" "stdint-uintn.h"
	.file	5 "/home/algadea/Dev/42/cube3d/misc/cub3d" "src/parsing/../../include/cub3d_player.h"
	.section	".note.GNU-stack","",@progbits
	.addrsig
	.addrsig_sym parse_elements
	.addrsig_sym check_from_first_line
	.addrsig_sym print_error_then_exit_program
	.addrsig_sym check_from_last_line
	.addrsig_sym ft_strlen
	.addrsig_sym check_line
	.addrsig_sym check_map_wall
	.addrsig_sym print_map_data