	.text
	.file	"parsing_file_bool.c"
	.globl	is_filename_correct             # -- Begin function is_filename_correct
	.p2align	4, 0x90
	.type	is_filename_correct,@function
is_filename_correct:                    # @is_filename_correct
.Lfunc_begin0:
	.file	1 "/home/algadea/Dev/42/cube3d/misc/cub3d" "src/parsing/parsing_file_bool.c"
	.loc	1 16 0                          # src/parsing/parsing_file_bool.c:16:0
	.cfi_startproc
# %bb.0:
	pushq	%rbp
	.cfi_def_cfa_offset 16
	.cfi_offset %rbp, -16
	movq	%rsp, %rbp
	.cfi_def_cfa_register %rbp
	subq	$32, %rsp
	movq	%rdi, -16(%rbp)
.Ltmp0:
	.loc	1 17 16 prologue_end            # src/parsing/parsing_file_bool.c:17:16
	movq	-16(%rbp), %rdi
	.loc	1 17 6 is_stmt 0                # src/parsing/parsing_file_bool.c:17:6
	callq	ft_strlen
	.loc	1 17 26                         # src/parsing/parsing_file_bool.c:17:26
	cmpq	$4, %rax
	.loc	1 18 3 is_stmt 1                # src/parsing/parsing_file_bool.c:18:3
	jbe	.LBB0_3
# %bb.1:
	.loc	1 18 18 is_stmt 0               # src/parsing/parsing_file_bool.c:18:18
	movq	-16(%rbp), %rax
	movq	%rax, -24(%rbp)                 # 8-byte Spill
	.loc	1 18 37                         # src/parsing/parsing_file_bool.c:18:37
	movq	-16(%rbp), %rdi
	.loc	1 18 27                         # src/parsing/parsing_file_bool.c:18:27
	callq	ft_strlen
	movq	-24(%rbp), %rdi                 # 8-byte Reload
	.loc	1 18 47                         # src/parsing/parsing_file_bool.c:18:47
	subq	$4, %rax
	.loc	1 18 18                         # src/parsing/parsing_file_bool.c:18:18
	addq	%rax, %rdi
	.loc	1 18 6                          # src/parsing/parsing_file_bool.c:18:6
	movabsq	$.L.str, %rsi
	movl	$4, %edx
	callq	ft_strncmp
	.loc	1 18 64                         # src/parsing/parsing_file_bool.c:18:64
	cmpl	$0, %eax
.Ltmp1:
	.loc	1 17 6 is_stmt 1                # src/parsing/parsing_file_bool.c:17:6
	jne	.LBB0_3
# %bb.2:
.Ltmp2:
	.loc	1 19 3                          # src/parsing/parsing_file_bool.c:19:3
	movb	$1, -1(%rbp)
	jmp	.LBB0_4
.Ltmp3:
.LBB0_3:
	.loc	1 20 2                          # src/parsing/parsing_file_bool.c:20:2
	movb	$0, -1(%rbp)
.LBB0_4:
	.loc	1 21 1                          # src/parsing/parsing_file_bool.c:21:1
	movb	-1(%rbp), %al
	andb	$1, %al
	movzbl	%al, %eax
	addq	$32, %rsp
	popq	%rbp
	.cfi_def_cfa %rsp, 8
	retq
.Ltmp4:
.Lfunc_end0:
	.size	is_filename_correct, .Lfunc_end0-is_filename_correct
	.cfi_endproc
                                        # -- End function
	.globl	are_all_elements_set            # -- Begin function are_all_elements_set
	.p2align	4, 0x90
	.type	are_all_elements_set,@function
are_all_elements_set:                   # @are_all_elements_set
.Lfunc_begin1:
	.loc	1 24 0                          # src/parsing/parsing_file_bool.c:24:0
	.cfi_startproc
# %bb.0:
	pushq	%rbp
	.cfi_def_cfa_offset 16
	.cfi_offset %rbp, -16
	movq	%rsp, %rbp
	.cfi_def_cfa_register %rbp
	movl	%edi, -8(%rbp)
.Ltmp5:
	.loc	1 25 15 prologue_end            # src/parsing/parsing_file_bool.c:25:15
	cmpl	$63, -8(%rbp)
.Ltmp6:
	.loc	1 25 6 is_stmt 0                # src/parsing/parsing_file_bool.c:25:6
	jne	.LBB1_2
# %bb.1:
.Ltmp7:
	.loc	1 26 3 is_stmt 1                # src/parsing/parsing_file_bool.c:26:3
	movb	$1, -1(%rbp)
	jmp	.LBB1_3
.Ltmp8:
.LBB1_2:
	.loc	1 27 2                          # src/parsing/parsing_file_bool.c:27:2
	movb	$0, -1(%rbp)
.LBB1_3:
	.loc	1 28 1                          # src/parsing/parsing_file_bool.c:28:1
	movb	-1(%rbp), %al
	andb	$1, %al
	movzbl	%al, %eax
	popq	%rbp
	.cfi_def_cfa %rsp, 8
	retq
.Ltmp9:
.Lfunc_end1:
	.size	are_all_elements_set, .Lfunc_end1-are_all_elements_set
	.cfi_endproc
                                        # -- End function
	.globl	is_space                        # -- Begin function is_space
	.p2align	4, 0x90
	.type	is_space,@function
is_space:                               # @is_space
.Lfunc_begin2:
	.loc	1 31 0                          # src/parsing/parsing_file_bool.c:31:0
	.cfi_startproc
# %bb.0:
	pushq	%rbp
	.cfi_def_cfa_offset 16
	.cfi_offset %rbp, -16
	movq	%rsp, %rbp
	.cfi_def_cfa_register %rbp
	movb	%dil, %al
	movb	%al, -2(%rbp)
.Ltmp10:
	.loc	1 32 6 prologue_end             # src/parsing/parsing_file_bool.c:32:6
	movsbl	-2(%rbp), %eax
	.loc	1 32 8 is_stmt 0                # src/parsing/parsing_file_bool.c:32:8
	cmpl	$32, %eax
	.loc	1 32 15                         # src/parsing/parsing_file_bool.c:32:15
	je	.LBB2_5
# %bb.1:
	.loc	1 32 18                         # src/parsing/parsing_file_bool.c:32:18
	movsbl	-2(%rbp), %eax
	.loc	1 32 20                         # src/parsing/parsing_file_bool.c:32:20
	cmpl	$12, %eax
	.loc	1 32 28                         # src/parsing/parsing_file_bool.c:32:28
	je	.LBB2_5
# %bb.2:
	.loc	1 32 31                         # src/parsing/parsing_file_bool.c:32:31
	movsbl	-2(%rbp), %eax
	.loc	1 32 33                         # src/parsing/parsing_file_bool.c:32:33
	cmpl	$9, %eax
	.loc	1 32 41                         # src/parsing/parsing_file_bool.c:32:41
	je	.LBB2_5
# %bb.3:
	.loc	1 32 44                         # src/parsing/parsing_file_bool.c:32:44
	movsbl	-2(%rbp), %eax
	.loc	1 32 46                         # src/parsing/parsing_file_bool.c:32:46
	cmpl	$13, %eax
	.loc	1 32 54                         # src/parsing/parsing_file_bool.c:32:54
	je	.LBB2_5
# %bb.4:
	.loc	1 32 57                         # src/parsing/parsing_file_bool.c:32:57
	movsbl	-2(%rbp), %eax
	.loc	1 32 59                         # src/parsing/parsing_file_bool.c:32:59
	cmpl	$11, %eax
.Ltmp11:
	.loc	1 32 6                          # src/parsing/parsing_file_bool.c:32:6
	jne	.LBB2_6
.LBB2_5:
.Ltmp12:
	.loc	1 33 3 is_stmt 1                # src/parsing/parsing_file_bool.c:33:3
	movb	$1, -1(%rbp)
	jmp	.LBB2_7
.Ltmp13:
.LBB2_6:
	.loc	1 34 2                          # src/parsing/parsing_file_bool.c:34:2
	movb	$0, -1(%rbp)
.LBB2_7:
	.loc	1 35 1                          # src/parsing/parsing_file_bool.c:35:1
	movb	-1(%rbp), %al
	andb	$1, %al
	movzbl	%al, %eax
	popq	%rbp
	.cfi_def_cfa %rsp, 8
	retq
.Ltmp14:
.Lfunc_end2:
	.size	is_space, .Lfunc_end2-is_space
	.cfi_endproc
                                        # -- End function
	.globl	is_valid_path                   # -- Begin function is_valid_path
	.p2align	4, 0x90
	.type	is_valid_path,@function
is_valid_path:                          # @is_valid_path
.Lfunc_begin3:
	.loc	1 38 0                          # src/parsing/parsing_file_bool.c:38:0
	.cfi_startproc
# %bb.0:
	pushq	%rbp
	.cfi_def_cfa_offset 16
	.cfi_offset %rbp, -16
	movq	%rsp, %rbp
	.cfi_def_cfa_register %rbp
	subq	$48, %rsp
	movq	%rdi, -16(%rbp)
	movq	%rsi, -24(%rbp)
.Ltmp15:
	.loc	1 42 16 prologue_end            # src/parsing/parsing_file_bool.c:42:16
	movq	-24(%rbp), %rdi
	.loc	1 42 6 is_stmt 0                # src/parsing/parsing_file_bool.c:42:6
	callq	ft_strlen
                                        # kill: def $eax killed $eax killed $rax
	.loc	1 42 4                          # src/parsing/parsing_file_bool.c:42:4
	movl	%eax, -28(%rbp)
.LBB3_1:                                # =>This Inner Loop Header: Depth=1
	.loc	1 43 9 is_stmt 1                # src/parsing/parsing_file_bool.c:43:9
	movq	-16(%rbp), %rax
	movslq	-28(%rbp), %rcx
	movsbl	(%rax,%rcx), %ecx
	xorl	%eax, %eax
                                        # kill: def $al killed $al killed $eax
	cmpl	$0, %ecx
	movb	%al, -33(%rbp)                  # 1-byte Spill
	.loc	1 43 17 is_stmt 0               # src/parsing/parsing_file_bool.c:43:17
	je	.LBB3_3
# %bb.2:                                #   in Loop: Header=BB3_1 Depth=1
	.loc	1 43 29                         # src/parsing/parsing_file_bool.c:43:29
	movq	-16(%rbp), %rax
	movslq	-28(%rbp), %rcx
	.loc	1 43 20                         # src/parsing/parsing_file_bool.c:43:20
	movsbl	(%rax,%rcx), %edi
	callq	is_space
	movb	%al, -33(%rbp)                  # 1-byte Spill
.LBB3_3:                                #   in Loop: Header=BB3_1 Depth=1
	.loc	1 0 20                          # src/parsing/parsing_file_bool.c:0:20
	movb	-33(%rbp), %al                  # 1-byte Reload
	.loc	1 43 2                          # src/parsing/parsing_file_bool.c:43:2
	testb	$1, %al
	jne	.LBB3_4
	jmp	.LBB3_5
.LBB3_4:                                #   in Loop: Header=BB3_1 Depth=1
	.loc	1 44 4 is_stmt 1                # src/parsing/parsing_file_bool.c:44:4
	movl	-28(%rbp), %eax
	addl	$1, %eax
	movl	%eax, -28(%rbp)
	.loc	1 43 2                          # src/parsing/parsing_file_bool.c:43:2
	jmp	.LBB3_1
.LBB3_5:
	.loc	1 45 4                          # src/parsing/parsing_file_bool.c:45:4
	movl	$0, -32(%rbp)
.LBB3_6:                                # =>This Inner Loop Header: Depth=1
	.loc	1 46 9                          # src/parsing/parsing_file_bool.c:46:9
	movq	-16(%rbp), %rax
	movslq	-28(%rbp), %rcx
	.loc	1 46 2 is_stmt 0                # src/parsing/parsing_file_bool.c:46:2
	cmpb	$0, (%rax,%rcx)
	je	.LBB3_10
# %bb.7:                                #   in Loop: Header=BB3_6 Depth=1
.Ltmp16:
	.loc	1 48 16 is_stmt 1               # src/parsing/parsing_file_bool.c:48:16
	movq	-16(%rbp), %rax
	movslq	-28(%rbp), %rcx
	.loc	1 48 7 is_stmt 0                # src/parsing/parsing_file_bool.c:48:7
	movsbl	(%rax,%rcx), %edi
	callq	is_space
.Ltmp17:
	.loc	1 48 7                          # src/parsing/parsing_file_bool.c:48:7
	testb	$1, %al
	jne	.LBB3_8
	jmp	.LBB3_9
.LBB3_8:
.Ltmp18:
	.loc	1 49 4 is_stmt 1                # src/parsing/parsing_file_bool.c:49:4
	movb	$0, -1(%rbp)
	jmp	.LBB3_13
.Ltmp19:
.LBB3_9:                                #   in Loop: Header=BB3_6 Depth=1
	.loc	1 50 4                          # src/parsing/parsing_file_bool.c:50:4
	movl	-28(%rbp), %eax
	addl	$1, %eax
	movl	%eax, -28(%rbp)
	.loc	1 51 4                          # src/parsing/parsing_file_bool.c:51:4
	movl	-32(%rbp), %eax
	addl	$1, %eax
	movl	%eax, -32(%rbp)
.Ltmp20:
	.loc	1 46 2                          # src/parsing/parsing_file_bool.c:46:2
	jmp	.LBB3_6
.LBB3_10:
.Ltmp21:
	.loc	1 53 8                          # src/parsing/parsing_file_bool.c:53:8
	cmpl	$0, -32(%rbp)
.Ltmp22:
	.loc	1 53 6 is_stmt 0                # src/parsing/parsing_file_bool.c:53:6
	jne	.LBB3_12
# %bb.11:
.Ltmp23:
	.loc	1 54 3 is_stmt 1                # src/parsing/parsing_file_bool.c:54:3
	movb	$0, -1(%rbp)
	jmp	.LBB3_13
.Ltmp24:
.LBB3_12:
	.loc	1 55 2                          # src/parsing/parsing_file_bool.c:55:2
	movb	$1, -1(%rbp)
.LBB3_13:
	.loc	1 56 1                          # src/parsing/parsing_file_bool.c:56:1
	movb	-1(%rbp), %al
	andb	$1, %al
	movzbl	%al, %eax
	addq	$48, %rsp
	popq	%rbp
	.cfi_def_cfa %rsp, 8
	retq
.Ltmp25:
.Lfunc_end3:
	.size	is_valid_path, .Lfunc_end3-is_valid_path
	.cfi_endproc
                                        # -- End function
	.type	.L.str,@object                  # @.str
	.section	.rodata.str1.1,"aMS",@progbits,1
.L.str:
	.asciz	".cub"
	.size	.L.str, 5

	.file	2 "/usr/include/x86_64-linux-gnu/bits" "types.h"
	.file	3 "/usr/include/x86_64-linux-gnu/bits" "stdint-uintn.h"
	.section	".note.GNU-stack","",@progbits
	.addrsig
	.addrsig_sym ft_strlen
	.addrsig_sym ft_strncmp
	.addrsig_sym is_space