	.text
	.file	"parsing_map.c"
	.file	1 "/home/algadea/Dev/42/cube3d/misc/cub3d" "src/parsing/../../include/cub3d.h"
	.globl	get_map_height                  # -- Begin function get_map_height
	.p2align	4, 0x90
	.type	get_map_height,@function
get_map_height:                         # @get_map_height
.Lfunc_begin0:
	.file	2 "/home/algadea/Dev/42/cube3d/misc/cub3d" "src/parsing/parsing_map.c"
	.loc	2 16 0                          # src/parsing/parsing_map.c:16:0
	.cfi_startproc
# %bb.0:
	pushq	%rbp
	.cfi_def_cfa_offset 16
	.cfi_offset %rbp, -16
	movq	%rsp, %rbp
	.cfi_def_cfa_register %rbp
	subq	$32, %rsp
	movq	%rdi, -16(%rbp)
	movq	%rsi, -24(%rbp)
.Ltmp0:
	.loc	2 19 9 prologue_end             # src/parsing/parsing_map.c:19:9
	movl	$0, -28(%rbp)
.LBB0_1:                                # =>This Inner Loop Header: Depth=1
	.loc	2 20 9                          # src/parsing/parsing_map.c:20:9
	movq	-24(%rbp), %rax
	movslq	-28(%rbp), %rcx
	.loc	2 20 2 is_stmt 0                # src/parsing/parsing_map.c:20:2
	cmpq	$0, (%rax,%rcx,8)
	je	.LBB0_6
# %bb.2:                                #   in Loop: Header=BB0_1 Depth=1
.Ltmp1:
	.loc	2 22 17 is_stmt 1               # src/parsing/parsing_map.c:22:17
	movq	-24(%rbp), %rax
	movslq	-28(%rbp), %rcx
	movq	(%rax,%rcx,8), %rdi
	.loc	2 22 7 is_stmt 0                # src/parsing/parsing_map.c:22:7
	callq	ft_strlen
	.loc	2 22 31                         # src/parsing/parsing_map.c:22:31
	cmpq	$0, %rax
	.loc	2 22 36                         # src/parsing/parsing_map.c:22:36
	jne	.LBB0_5
# %bb.3:                                #   in Loop: Header=BB0_1 Depth=1
	.loc	2 22 39                         # src/parsing/parsing_map.c:22:39
	movq	-24(%rbp), %rax
	.loc	2 22 44                         # src/parsing/parsing_map.c:22:44
	movl	-28(%rbp), %ecx
	.loc	2 22 51                         # src/parsing/parsing_map.c:22:51
	addl	$1, %ecx
	.loc	2 22 39                         # src/parsing/parsing_map.c:22:39
	movslq	%ecx, %rcx
	.loc	2 22 56                         # src/parsing/parsing_map.c:22:56
	cmpq	$0, (%rax,%rcx,8)
.Ltmp2:
	.loc	2 22 7                          # src/parsing/parsing_map.c:22:7
	je	.LBB0_5
# %bb.4:
.Ltmp3:
	.loc	2 23 4 is_stmt 1                # src/parsing/parsing_map.c:23:4
	movl	$0, -4(%rbp)
	jmp	.LBB0_9
.Ltmp4:
.LBB0_5:                                #   in Loop: Header=BB0_1 Depth=1
	.loc	2 24 9                          # src/parsing/parsing_map.c:24:9
	movl	-28(%rbp), %eax
	addl	$1, %eax
	movl	%eax, -28(%rbp)
.Ltmp5:
	.loc	2 20 2                          # src/parsing/parsing_map.c:20:2
	jmp	.LBB0_1
.LBB0_6:
.Ltmp6:
	.loc	2 26 13                         # src/parsing/parsing_map.c:26:13
	cmpl	$0, -28(%rbp)
.Ltmp7:
	.loc	2 26 6 is_stmt 0                # src/parsing/parsing_map.c:26:6
	jne	.LBB0_8
# %bb.7:
.Ltmp8:
	.loc	2 27 33 is_stmt 1               # src/parsing/parsing_map.c:27:33
	movq	-16(%rbp), %rdi
	.loc	2 27 3 is_stmt 0                # src/parsing/parsing_map.c:27:3
	movl	$10, %esi
	callq	print_error_then_exit_program
.Ltmp9:
.LBB0_8:
	.loc	2 28 10 is_stmt 1               # src/parsing/parsing_map.c:28:10
	movl	-28(%rbp), %eax
	.loc	2 28 2 is_stmt 0                # src/parsing/parsing_map.c:28:2
	movl	%eax, -4(%rbp)
.LBB0_9:
	.loc	2 29 1 is_stmt 1                # src/parsing/parsing_map.c:29:1
	movl	-4(%rbp), %eax
	addq	$32, %rsp
	popq	%rbp
	.cfi_def_cfa %rsp, 8
	retq
.Ltmp10:
.Lfunc_end0:
	.size	get_map_height, .Lfunc_end0-get_map_height
	.cfi_endproc
                                        # -- End function
	.globl	set_index_at_map_start_line     # -- Begin function set_index_at_map_start_line
	.p2align	4, 0x90
	.type	set_index_at_map_start_line,@function
set_index_at_map_start_line:            # @set_index_at_map_start_line
.Lfunc_begin1:
	.loc	2 32 0                          # src/parsing/parsing_map.c:32:0
	.cfi_startproc
# %bb.0:
	pushq	%rbp
	.cfi_def_cfa_offset 16
	.cfi_offset %rbp, -16
	movq	%rsp, %rbp
	.cfi_def_cfa_register %rbp
	subq	$16, %rsp
	movq	%rdi, -8(%rbp)
.Ltmp11:
	.loc	2 35 10 prologue_end            # src/parsing/parsing_map.c:35:10
	movq	-8(%rbp), %rax
	.loc	2 35 17 is_stmt 0               # src/parsing/parsing_map.c:35:17
	movq	32(%rax), %rax
	.loc	2 35 23                         # src/parsing/parsing_map.c:35:23
	movl	8(%rax), %eax
	.loc	2 35 8                          # src/parsing/parsing_map.c:35:8
	movl	%eax, -12(%rbp)
.LBB1_1:                                # =>This Inner Loop Header: Depth=1
	.loc	2 36 9 is_stmt 1                # src/parsing/parsing_map.c:36:9
	movq	-8(%rbp), %rax
	.loc	2 36 16 is_stmt 0               # src/parsing/parsing_map.c:36:16
	movq	32(%rax), %rax
	.loc	2 36 22                         # src/parsing/parsing_map.c:36:22
	movq	48(%rax), %rcx
	.loc	2 36 9                          # src/parsing/parsing_map.c:36:9
	movslq	-12(%rbp), %rdx
	xorl	%eax, %eax
                                        # kill: def $al killed $al killed $eax
	cmpq	$0, (%rcx,%rdx,8)
	movb	%al, -13(%rbp)                  # 1-byte Spill
	.loc	2 36 34                         # src/parsing/parsing_map.c:36:34
	je	.LBB1_3
# %bb.2:                                #   in Loop: Header=BB1_1 Depth=1
	.loc	2 36 47                         # src/parsing/parsing_map.c:36:47
	movq	-8(%rbp), %rax
	.loc	2 36 54                         # src/parsing/parsing_map.c:36:54
	movq	32(%rax), %rax
	.loc	2 36 60                         # src/parsing/parsing_map.c:36:60
	movq	48(%rax), %rax
	.loc	2 36 47                         # src/parsing/parsing_map.c:36:47
	movslq	-12(%rbp), %rcx
	movq	(%rax,%rcx,8), %rdi
	.loc	2 36 37                         # src/parsing/parsing_map.c:36:37
	callq	ft_strlen
	.loc	2 36 73                         # src/parsing/parsing_map.c:36:73
	cmpq	$0, %rax
	sete	%al
	movb	%al, -13(%rbp)                  # 1-byte Spill
.LBB1_3:                                #   in Loop: Header=BB1_1 Depth=1
	.loc	2 0 73                          # src/parsing/parsing_map.c:0:73
	movb	-13(%rbp), %al                  # 1-byte Reload
	.loc	2 36 2                          # src/parsing/parsing_map.c:36:2
	testb	$1, %al
	jne	.LBB1_4
	jmp	.LBB1_5
.LBB1_4:                                #   in Loop: Header=BB1_1 Depth=1
	.loc	2 37 8 is_stmt 1                # src/parsing/parsing_map.c:37:8
	movl	-12(%rbp), %eax
	addl	$1, %eax
	movl	%eax, -12(%rbp)
	.loc	2 36 2                          # src/parsing/parsing_map.c:36:2
	jmp	.LBB1_1
.LBB1_5:
	.loc	2 38 10                         # src/parsing/parsing_map.c:38:10
	movl	-12(%rbp), %eax
	.loc	2 38 2 is_stmt 0                # src/parsing/parsing_map.c:38:2
	addq	$16, %rsp
	popq	%rbp
	.cfi_def_cfa %rsp, 8
	retq
.Ltmp12:
.Lfunc_end1:
	.size	set_index_at_map_start_line, .Lfunc_end1-set_index_at_map_start_line
	.cfi_endproc
                                        # -- End function
	.globl	is_start_position               # -- Begin function is_start_position
	.p2align	4, 0x90
	.type	is_start_position,@function
is_start_position:                      # @is_start_position
.Lfunc_begin2:
	.loc	2 42 0 is_stmt 1                # src/parsing/parsing_map.c:42:0
	.cfi_startproc
# %bb.0:
	pushq	%rbp
	.cfi_def_cfa_offset 16
	.cfi_offset %rbp, -16
	movq	%rsp, %rbp
	.cfi_def_cfa_register %rbp
	movb	%dil, %al
	movb	%al, -2(%rbp)
.Ltmp13:
	.loc	2 43 6 prologue_end             # src/parsing/parsing_map.c:43:6
	movsbl	-2(%rbp), %eax
	.loc	2 43 8 is_stmt 0                # src/parsing/parsing_map.c:43:8
	cmpl	$78, %eax
	.loc	2 43 15                         # src/parsing/parsing_map.c:43:15
	je	.LBB2_4
# %bb.1:
	.loc	2 43 18                         # src/parsing/parsing_map.c:43:18
	movsbl	-2(%rbp), %eax
	.loc	2 43 20                         # src/parsing/parsing_map.c:43:20
	cmpl	$83, %eax
	.loc	2 43 27                         # src/parsing/parsing_map.c:43:27
	je	.LBB2_4
# %bb.2:
	.loc	2 43 30                         # src/parsing/parsing_map.c:43:30
	movsbl	-2(%rbp), %eax
	.loc	2 43 32                         # src/parsing/parsing_map.c:43:32
	cmpl	$69, %eax
	.loc	2 43 39                         # src/parsing/parsing_map.c:43:39
	je	.LBB2_4
# %bb.3:
	.loc	2 43 42                         # src/parsing/parsing_map.c:43:42
	movsbl	-2(%rbp), %eax
	.loc	2 43 44                         # src/parsing/parsing_map.c:43:44
	cmpl	$87, %eax
.Ltmp14:
	.loc	2 43 6                          # src/parsing/parsing_map.c:43:6
	jne	.LBB2_5
.LBB2_4:
.Ltmp15:
	.loc	2 44 3 is_stmt 1                # src/parsing/parsing_map.c:44:3
	movb	$1, -1(%rbp)
	jmp	.LBB2_6
.Ltmp16:
.LBB2_5:
	.loc	2 45 2                          # src/parsing/parsing_map.c:45:2
	movb	$0, -1(%rbp)
.LBB2_6:
	.loc	2 46 1                          # src/parsing/parsing_map.c:46:1
	movb	-1(%rbp), %al
	andb	$1, %al
	movzbl	%al, %eax
	popq	%rbp
	.cfi_def_cfa %rsp, 8
	retq
.Ltmp17:
.Lfunc_end2:
	.size	is_start_position, .Lfunc_end2-is_start_position
	.cfi_endproc
                                        # -- End function
	.globl	get_player_orientation          # -- Begin function get_player_orientation
	.p2align	4, 0x90
	.type	get_player_orientation,@function
get_player_orientation:                 # @get_player_orientation
.Lfunc_begin3:
	.loc	2 49 0                          # src/parsing/parsing_map.c:49:0
	.cfi_startproc
# %bb.0:
	pushq	%rbp
	.cfi_def_cfa_offset 16
	.cfi_offset %rbp, -16
	movq	%rsp, %rbp
	.cfi_def_cfa_register %rbp
	movb	%dil, %al
	movb	%al, -5(%rbp)
.Ltmp18:
	.loc	2 50 6 prologue_end             # src/parsing/parsing_map.c:50:6
	movsbl	-5(%rbp), %eax
	.loc	2 50 8 is_stmt 0                # src/parsing/parsing_map.c:50:8
	cmpl	$69, %eax
.Ltmp19:
	.loc	2 50 6                          # src/parsing/parsing_map.c:50:6
	jne	.LBB3_2
# %bb.1:
.Ltmp20:
	.loc	2 51 3 is_stmt 1                # src/parsing/parsing_map.c:51:3
	movl	$0, -4(%rbp)
	jmp	.LBB3_7
.Ltmp21:
.LBB3_2:
	.loc	2 52 6                          # src/parsing/parsing_map.c:52:6
	movsbl	-5(%rbp), %eax
	.loc	2 52 8 is_stmt 0                # src/parsing/parsing_map.c:52:8
	cmpl	$78, %eax
.Ltmp22:
	.loc	2 52 6                          # src/parsing/parsing_map.c:52:6
	jne	.LBB3_4
# %bb.3:
.Ltmp23:
	.loc	2 53 3 is_stmt 1                # src/parsing/parsing_map.c:53:3
	movl	$90, -4(%rbp)
	jmp	.LBB3_7
.Ltmp24:
.LBB3_4:
	.loc	2 54 6                          # src/parsing/parsing_map.c:54:6
	movsbl	-5(%rbp), %eax
	.loc	2 54 8 is_stmt 0                # src/parsing/parsing_map.c:54:8
	cmpl	$87, %eax
.Ltmp25:
	.loc	2 54 6                          # src/parsing/parsing_map.c:54:6
	jne	.LBB3_6
# %bb.5:
.Ltmp26:
	.loc	2 55 3 is_stmt 1                # src/parsing/parsing_map.c:55:3
	movl	$180, -4(%rbp)
	jmp	.LBB3_7
.Ltmp27:
.LBB3_6:
	.loc	2 56 2                          # src/parsing/parsing_map.c:56:2
	movl	$270, -4(%rbp)                  # imm = 0x10E
.LBB3_7:
	.loc	2 57 1                          # src/parsing/parsing_map.c:57:1
	movl	-4(%rbp), %eax
	popq	%rbp
	.cfi_def_cfa %rsp, 8
	retq
.Ltmp28:
.Lfunc_end3:
	.size	get_player_orientation, .Lfunc_end3-get_player_orientation
	.cfi_endproc
                                        # -- End function
	.section	.rodata.cst8,"aM",@progbits,8
	.p2align	3                               # -- Begin function try_to_get_player_start_position
.LCPI4_0:
	.quad	0x3fd3333333333333              # double 0.29999999999999999
	.section	.rodata.cst16,"aM",@progbits,16
	.p2align	4
.LCPI4_1:
	.long	1127219200                      # 0x43300000
	.long	1160773632                      # 0x45300000
	.long	0                               # 0x0
	.long	0                               # 0x0
.LCPI4_2:
	.quad	0x4330000000000000              # double 4503599627370496
	.quad	0x4530000000000000              # double 1.9342813113834067E+25
	.text
	.globl	try_to_get_player_start_position
	.p2align	4, 0x90
	.type	try_to_get_player_start_position,@function
try_to_get_player_start_position:       # @try_to_get_player_start_position
.Lfunc_begin4:
	.loc	2 60 0                          # src/parsing/parsing_map.c:60:0
	.cfi_startproc
# %bb.0:
	pushq	%rbp
	.cfi_def_cfa_offset 16
	.cfi_offset %rbp, -16
	movq	%rsp, %rbp
	.cfi_def_cfa_register %rbp
	subq	$48, %rsp
	movq	%rdi, -8(%rbp)
	movq	%rsi, -16(%rbp)
	movq	%rdx, -24(%rbp)
	movq	%rcx, -32(%rbp)
.Ltmp29:
	.loc	2 63 4 prologue_end             # src/parsing/parsing_map.c:63:4
	movl	$0, -36(%rbp)
.LBB4_1:                                # =>This Inner Loop Header: Depth=1
	.loc	2 64 9                          # src/parsing/parsing_map.c:64:9
	movq	-16(%rbp), %rax
	movslq	-36(%rbp), %rcx
	.loc	2 64 2 is_stmt 0                # src/parsing/parsing_map.c:64:2
	cmpb	$0, (%rax,%rcx)
	je	.LBB4_12
# %bb.2:                                #   in Loop: Header=BB4_1 Depth=1
.Ltmp30:
	.loc	2 66 25 is_stmt 1               # src/parsing/parsing_map.c:66:25
	movq	-16(%rbp), %rax
	movslq	-36(%rbp), %rcx
	.loc	2 66 7 is_stmt 0                # src/parsing/parsing_map.c:66:7
	movsbl	(%rax,%rcx), %edi
	callq	is_start_position
.Ltmp31:
	.loc	2 66 7                          # src/parsing/parsing_map.c:66:7
	testb	$1, %al
	jne	.LBB4_3
	jmp	.LBB4_6
.LBB4_3:                                #   in Loop: Header=BB4_1 Depth=1
.Ltmp32:
	.loc	2 68 9 is_stmt 1                # src/parsing/parsing_map.c:68:9
	movq	-32(%rbp), %rax
	.loc	2 68 8 is_stmt 0                # src/parsing/parsing_map.c:68:8
	movb	(%rax), %al
	andb	$1, %al
	movzbl	%al, %eax
	.loc	2 68 14                         # src/parsing/parsing_map.c:68:14
	cmpl	$1, %eax
.Ltmp33:
	.loc	2 68 8                          # src/parsing/parsing_map.c:68:8
	jne	.LBB4_5
# %bb.4:                                #   in Loop: Header=BB4_1 Depth=1
.Ltmp34:
	.loc	2 69 35 is_stmt 1               # src/parsing/parsing_map.c:69:35
	movq	-8(%rbp), %rdi
	.loc	2 69 5 is_stmt 0                # src/parsing/parsing_map.c:69:5
	movl	$11, %esi
	callq	print_error_then_exit_program
.Ltmp35:
.LBB4_5:                                #   in Loop: Header=BB4_1 Depth=1
	.loc	2 70 27 is_stmt 1               # src/parsing/parsing_map.c:70:27
	cvtsi2sdl	-36(%rbp), %xmm0
	movsd	.LCPI4_0(%rip), %xmm1           # xmm1 = mem[0],zero
	.loc	2 70 37 is_stmt 0               # src/parsing/parsing_map.c:70:37
	addsd	%xmm1, %xmm0
	.loc	2 70 4                          # src/parsing/parsing_map.c:70:4
	movq	-8(%rbp), %rax
	.loc	2 70 11                         # src/parsing/parsing_map.c:70:11
	movq	48(%rax), %rax
	.loc	2 70 25                         # src/parsing/parsing_map.c:70:25
	movsd	%xmm0, 24(%rax)
	.loc	2 71 27 is_stmt 1               # src/parsing/parsing_map.c:71:27
	movaps	.LCPI4_1(%rip), %xmm1           # xmm1 = [1127219200,1160773632,0,0]
	movq	-24(%rbp), %xmm0                # xmm0 = mem[0],zero
	punpckldq	%xmm1, %xmm0            # xmm0 = xmm0[0],xmm1[0],xmm0[1],xmm1[1]
	movapd	.LCPI4_2(%rip), %xmm1           # xmm1 = [4.503599627370496E+15,1.9342813113834067E+25]
	subpd	%xmm1, %xmm0
	movaps	%xmm0, %xmm1
	unpckhpd	%xmm0, %xmm0                    # xmm0 = xmm0[1,1]
	addsd	%xmm1, %xmm0
	.loc	2 71 37 is_stmt 0               # src/parsing/parsing_map.c:71:37
	movsd	.LCPI4_0(%rip), %xmm1           # xmm1 = mem[0],zero
	addsd	%xmm1, %xmm0
	.loc	2 71 4                          # src/parsing/parsing_map.c:71:4
	movq	-8(%rbp), %rax
	.loc	2 71 11                         # src/parsing/parsing_map.c:71:11
	movq	48(%rax), %rax
	.loc	2 71 25                         # src/parsing/parsing_map.c:71:25
	movsd	%xmm0, 32(%rax)
	.loc	2 72 50 is_stmt 1               # src/parsing/parsing_map.c:72:50
	movq	-16(%rbp), %rax
	movslq	-36(%rbp), %rcx
	.loc	2 72 27 is_stmt 0               # src/parsing/parsing_map.c:72:27
	movsbl	(%rax,%rcx), %edi
	callq	get_player_orientation
	cvtsi2sd	%eax, %xmm0
	.loc	2 72 4                          # src/parsing/parsing_map.c:72:4
	movq	-8(%rbp), %rax
	.loc	2 72 11                         # src/parsing/parsing_map.c:72:11
	movq	48(%rax), %rax
	.loc	2 72 25                         # src/parsing/parsing_map.c:72:25
	movsd	%xmm0, 16(%rax)
	.loc	2 73 5 is_stmt 1                # src/parsing/parsing_map.c:73:5
	movq	-32(%rbp), %rax
	.loc	2 73 10 is_stmt 0               # src/parsing/parsing_map.c:73:10
	movb	$1, (%rax)
	.loc	2 74 3 is_stmt 1                # src/parsing/parsing_map.c:74:3
	jmp	.LBB4_11
.Ltmp36:
.LBB4_6:                                #   in Loop: Header=BB4_1 Depth=1
	.loc	2 75 12                         # src/parsing/parsing_map.c:75:12
	movq	-16(%rbp), %rax
	movslq	-36(%rbp), %rcx
	movsbl	(%rax,%rcx), %eax
	.loc	2 75 20 is_stmt 0               # src/parsing/parsing_map.c:75:20
	cmpl	$48, %eax
	.loc	2 75 27                         # src/parsing/parsing_map.c:75:27
	je	.LBB4_10
# %bb.7:                                #   in Loop: Header=BB4_1 Depth=1
	.loc	2 75 30                         # src/parsing/parsing_map.c:75:30
	movq	-16(%rbp), %rax
	movslq	-36(%rbp), %rcx
	movsbl	(%rax,%rcx), %eax
	.loc	2 75 38                         # src/parsing/parsing_map.c:75:38
	cmpl	$49, %eax
	.loc	2 75 45                         # src/parsing/parsing_map.c:75:45
	je	.LBB4_10
# %bb.8:                                #   in Loop: Header=BB4_1 Depth=1
	.loc	2 75 58                         # src/parsing/parsing_map.c:75:58
	movq	-16(%rbp), %rax
	movslq	-36(%rbp), %rcx
	.loc	2 75 49                         # src/parsing/parsing_map.c:75:49
	movsbl	(%rax,%rcx), %edi
	callq	is_space
.Ltmp37:
	.loc	2 75 12                         # src/parsing/parsing_map.c:75:12
	testb	$1, %al
	jne	.LBB4_10
# %bb.9:                                #   in Loop: Header=BB4_1 Depth=1
.Ltmp38:
	.loc	2 76 34 is_stmt 1               # src/parsing/parsing_map.c:76:34
	movq	-8(%rbp), %rdi
	.loc	2 76 4 is_stmt 0                # src/parsing/parsing_map.c:76:4
	movl	$10, %esi
	callq	print_error_then_exit_program
.Ltmp39:
.LBB4_10:                               #   in Loop: Header=BB4_1 Depth=1
	.loc	2 0 4                           # src/parsing/parsing_map.c:0:4
	jmp	.LBB4_11
.LBB4_11:                               #   in Loop: Header=BB4_1 Depth=1
	.loc	2 77 4 is_stmt 1                # src/parsing/parsing_map.c:77:4
	movl	-36(%rbp), %eax
	addl	$1, %eax
	movl	%eax, -36(%rbp)
.Ltmp40:
	.loc	2 64 2                          # src/parsing/parsing_map.c:64:2
	jmp	.LBB4_1
.LBB4_12:
	.loc	2 79 1                          # src/parsing/parsing_map.c:79:1
	addq	$48, %rsp
	popq	%rbp
	.cfi_def_cfa %rsp, 8
	retq
.Ltmp41:
.Lfunc_end4:
	.size	try_to_get_player_start_position, .Lfunc_end4-try_to_get_player_start_position
	.cfi_endproc
                                        # -- End function
	.globl	extract_map                     # -- Begin function extract_map
	.p2align	4, 0x90
	.type	extract_map,@function
extract_map:                            # @extract_map
.Lfunc_begin5:
	.loc	2 82 0                          # src/parsing/parsing_map.c:82:0
	.cfi_startproc
# %bb.0:
	pushq	%rbp
	.cfi_def_cfa_offset 16
	.cfi_offset %rbp, -16
	movq	%rsp, %rbp
	.cfi_def_cfa_register %rbp
	subq	$32, %rsp
	movq	%rdi, -8(%rbp)
.Ltmp42:
	.loc	2 88 34 prologue_end            # src/parsing/parsing_map.c:88:34
	movq	-8(%rbp), %rdi
	.loc	2 88 6 is_stmt 0                # src/parsing/parsing_map.c:88:6
	callq	set_index_at_map_start_line
	.loc	2 88 4                          # src/parsing/parsing_map.c:88:4
	movl	%eax, -12(%rbp)
	.loc	2 89 38 is_stmt 1               # src/parsing/parsing_map.c:89:38
	movq	-8(%rbp), %rdi
	.loc	2 89 46 is_stmt 0               # src/parsing/parsing_map.c:89:46
	movq	-8(%rbp), %rax
	.loc	2 89 53                         # src/parsing/parsing_map.c:89:53
	movq	32(%rax), %rax
	.loc	2 89 59                         # src/parsing/parsing_map.c:89:59
	movq	48(%rax), %rsi
	.loc	2 89 46                         # src/parsing/parsing_map.c:89:46
	movslq	-12(%rbp), %rax
	shlq	$3, %rax
	addq	%rax, %rsi
	.loc	2 89 23                         # src/parsing/parsing_map.c:89:23
	callq	get_map_height
	movslq	%eax, %rcx
	.loc	2 89 2                          # src/parsing/parsing_map.c:89:2
	movq	-8(%rbp), %rax
	.loc	2 89 9                          # src/parsing/parsing_map.c:89:9
	movq	24(%rax), %rax
	.loc	2 89 21                         # src/parsing/parsing_map.c:89:21
	movq	%rcx, 8(%rax)
	.loc	2 90 46 is_stmt 1               # src/parsing/parsing_map.c:90:46
	movq	-8(%rbp), %rax
	.loc	2 90 53 is_stmt 0               # src/parsing/parsing_map.c:90:53
	movq	24(%rax), %rax
	.loc	2 90 58                         # src/parsing/parsing_map.c:90:58
	movq	8(%rax), %rdi
	.loc	2 90 65                         # src/parsing/parsing_map.c:90:65
	addq	$1, %rdi
	.loc	2 90 43                         # src/parsing/parsing_map.c:90:43
	shlq	$3, %rdi
	.loc	2 90 21                         # src/parsing/parsing_map.c:90:21
	callq	malloc
	movq	%rax, %rcx
	.loc	2 90 2                          # src/parsing/parsing_map.c:90:2
	movq	-8(%rbp), %rax
	.loc	2 90 9                          # src/parsing/parsing_map.c:90:9
	movq	24(%rax), %rax
	.loc	2 90 19                         # src/parsing/parsing_map.c:90:19
	movq	%rcx, 56(%rax)
.Ltmp43:
	.loc	2 91 7 is_stmt 1                # src/parsing/parsing_map.c:91:7
	movq	-8(%rbp), %rax
	.loc	2 91 14 is_stmt 0               # src/parsing/parsing_map.c:91:14
	movq	24(%rax), %rax
	.loc	2 91 7                          # src/parsing/parsing_map.c:91:7
	cmpq	$0, 56(%rax)
.Ltmp44:
	.loc	2 91 6                          # src/parsing/parsing_map.c:91:6
	jne	.LBB5_2
# %bb.1:
.Ltmp45:
	.loc	2 92 33 is_stmt 1               # src/parsing/parsing_map.c:92:33
	movq	-8(%rbp), %rdi
	.loc	2 92 3 is_stmt 0                # src/parsing/parsing_map.c:92:3
	movl	$9, %esi
	callq	print_error_then_exit_program
.Ltmp46:
.LBB5_2:
	.loc	2 93 4 is_stmt 1                # src/parsing/parsing_map.c:93:4
	movl	$0, -16(%rbp)
	.loc	2 94 7                          # src/parsing/parsing_map.c:94:7
	movb	$0, -17(%rbp)
	.loc	2 95 2                          # src/parsing/parsing_map.c:95:2
	movq	-8(%rbp), %rax
	.loc	2 95 9 is_stmt 0                # src/parsing/parsing_map.c:95:9
	movq	24(%rax), %rax
	.loc	2 95 20                         # src/parsing/parsing_map.c:95:20
	movq	$0, (%rax)
.LBB5_3:                                # =>This Inner Loop Header: Depth=1
	.loc	2 96 9 is_stmt 1                # src/parsing/parsing_map.c:96:9
	movq	-8(%rbp), %rax
	.loc	2 96 16 is_stmt 0               # src/parsing/parsing_map.c:96:16
	movq	32(%rax), %rax
	.loc	2 96 22                         # src/parsing/parsing_map.c:96:22
	movq	48(%rax), %rax
	.loc	2 96 9                          # src/parsing/parsing_map.c:96:9
	movslq	-12(%rbp), %rcx
	.loc	2 96 2                          # src/parsing/parsing_map.c:96:2
	cmpq	$0, (%rax,%rcx,8)
	je	.LBB5_7
# %bb.4:                                #   in Loop: Header=BB5_3 Depth=1
.Ltmp47:
	.loc	2 98 35 is_stmt 1               # src/parsing/parsing_map.c:98:35
	movq	-8(%rbp), %rax
	.loc	2 98 42 is_stmt 0               # src/parsing/parsing_map.c:98:42
	movq	32(%rax), %rax
	.loc	2 98 48                         # src/parsing/parsing_map.c:98:48
	movq	48(%rax), %rax
	.loc	2 98 35                         # src/parsing/parsing_map.c:98:35
	movslq	-12(%rbp), %rcx
	movq	(%rax,%rcx,8), %rdi
	.loc	2 98 25                         # src/parsing/parsing_map.c:98:25
	callq	ft_strdup
	movq	%rax, %rdx
	.loc	2 98 3                          # src/parsing/parsing_map.c:98:3
	movq	-8(%rbp), %rax
	.loc	2 98 10                         # src/parsing/parsing_map.c:98:10
	movq	24(%rax), %rax
	.loc	2 98 15                         # src/parsing/parsing_map.c:98:15
	movq	56(%rax), %rax
	.loc	2 98 3                          # src/parsing/parsing_map.c:98:3
	movslq	-16(%rbp), %rcx
	.loc	2 98 23                         # src/parsing/parsing_map.c:98:23
	movq	%rdx, (%rax,%rcx,8)
	.loc	2 99 36 is_stmt 1               # src/parsing/parsing_map.c:99:36
	movq	-8(%rbp), %rdi
	.loc	2 99 43 is_stmt 0               # src/parsing/parsing_map.c:99:43
	movq	-8(%rbp), %rax
	.loc	2 99 50                         # src/parsing/parsing_map.c:99:50
	movq	24(%rax), %rax
	.loc	2 99 55                         # src/parsing/parsing_map.c:99:55
	movq	56(%rax), %rax
	.loc	2 99 43                         # src/parsing/parsing_map.c:99:43
	movslq	-16(%rbp), %rcx
	movq	(%rax,%rcx,8), %rsi
	.loc	2 99 64                         # src/parsing/parsing_map.c:99:64
	movslq	-16(%rbp), %rdx
	.loc	2 99 3                          # src/parsing/parsing_map.c:99:3
	leaq	-17(%rbp), %rcx
	callq	try_to_get_player_start_position
	.loc	2 100 21 is_stmt 1              # src/parsing/parsing_map.c:100:21
	movq	-8(%rbp), %rax
	.loc	2 100 28 is_stmt 0              # src/parsing/parsing_map.c:100:28
	movq	24(%rax), %rax
	.loc	2 100 33                        # src/parsing/parsing_map.c:100:33
	movq	56(%rax), %rax
	.loc	2 100 21                        # src/parsing/parsing_map.c:100:21
	movslq	-16(%rbp), %rcx
	movq	(%rax,%rcx,8), %rdi
	.loc	2 100 11                        # src/parsing/parsing_map.c:100:11
	callq	ft_strlen
	.loc	2 100 9                         # src/parsing/parsing_map.c:100:9
	movq	%rax, -32(%rbp)
.Ltmp48:
	.loc	2 101 7 is_stmt 1               # src/parsing/parsing_map.c:101:7
	movq	-32(%rbp), %rax
	.loc	2 101 15 is_stmt 0              # src/parsing/parsing_map.c:101:15
	movq	-8(%rbp), %rcx
	.loc	2 101 22                        # src/parsing/parsing_map.c:101:22
	movq	24(%rcx), %rcx
	.loc	2 101 13                        # src/parsing/parsing_map.c:101:13
	cmpq	(%rcx), %rax
.Ltmp49:
	.loc	2 101 7                         # src/parsing/parsing_map.c:101:7
	jbe	.LBB5_6
# %bb.5:                                #   in Loop: Header=BB5_3 Depth=1
.Ltmp50:
	.loc	2 102 24 is_stmt 1              # src/parsing/parsing_map.c:102:24
	movq	-32(%rbp), %rcx
	.loc	2 102 4 is_stmt 0               # src/parsing/parsing_map.c:102:4
	movq	-8(%rbp), %rax
	.loc	2 102 11                        # src/parsing/parsing_map.c:102:11
	movq	24(%rax), %rax
	.loc	2 102 22                        # src/parsing/parsing_map.c:102:22
	movq	%rcx, (%rax)
.Ltmp51:
.LBB5_6:                                #   in Loop: Header=BB5_3 Depth=1
	.loc	2 103 4 is_stmt 1               # src/parsing/parsing_map.c:103:4
	movl	-16(%rbp), %eax
	addl	$1, %eax
	movl	%eax, -16(%rbp)
	.loc	2 104 4                         # src/parsing/parsing_map.c:104:4
	movl	-12(%rbp), %eax
	addl	$1, %eax
	movl	%eax, -12(%rbp)
.Ltmp52:
	.loc	2 96 2                          # src/parsing/parsing_map.c:96:2
	jmp	.LBB5_3
.LBB5_7:
	.loc	2 106 2                         # src/parsing/parsing_map.c:106:2
	movq	-8(%rbp), %rax
	.loc	2 106 9 is_stmt 0               # src/parsing/parsing_map.c:106:9
	movq	24(%rax), %rax
	.loc	2 106 14                        # src/parsing/parsing_map.c:106:14
	movq	56(%rax), %rax
	.loc	2 106 2                         # src/parsing/parsing_map.c:106:2
	movslq	-16(%rbp), %rcx
	.loc	2 106 22                        # src/parsing/parsing_map.c:106:22
	movq	$0, (%rax,%rcx,8)
	.loc	2 107 8 is_stmt 1               # src/parsing/parsing_map.c:107:8
	movq	-8(%rbp), %rax
	.loc	2 107 15 is_stmt 0              # src/parsing/parsing_map.c:107:15
	movq	32(%rax), %rax
	.loc	2 107 21                        # src/parsing/parsing_map.c:107:21
	movl	(%rax), %edi
	.loc	2 107 2                         # src/parsing/parsing_map.c:107:2
	callq	close
	.loc	2 108 1 is_stmt 1               # src/parsing/parsing_map.c:108:1
	addq	$32, %rsp
	popq	%rbp
	.cfi_def_cfa %rsp, 8
	retq
.Ltmp53:
.Lfunc_end5:
	.size	extract_map, .Lfunc_end5-extract_map
	.cfi_endproc
                                        # -- End function
	.file	3 "/usr/include/x86_64-linux-gnu/bits" "types.h"
	.file	4 "/usr/include/x86_64-linux-gnu/bits" "stdint-uintn.h"
	.file	5 "/home/algadea/Dev/42/cube3d/misc/cub3d" "src/parsing/../../include/cub3d_player.h"
	.section	".note.GNU-stack","",@progbits
	.addrsig
	.addrsig_sym get_map_height
	.addrsig_sym ft_strlen
	.addrsig_sym print_error_then_exit_program
	.addrsig_sym set_index_at_map_start_line
	.addrsig_sym is_start_position
	.addrsig_sym get_player_orientation
	.addrsig_sym try_to_get_player_start_position
	.addrsig_sym is_space
	.addrsig_sym malloc
	.addrsig_sym ft_strdup
	.addrsig_sym close